(dp0
(V2008_005781
p1
Vrope
p2
tp3
Vwire
p4
s(V2010_004247
p5
Vsaddle
p6
tp7
Vfix
p8
s(V2008_007423
p9
Vcage
p10
tp11
Vbird feeder
p12
s(V2008_007496
p13
Vcarpet
p14
tp15
Vrug
p16
s(V2009_002915
p17
Vcarpet
p18
tp19
Vrug
p20
s(V2008_001486
p21
Vglass
p22
tp23
Vcup
p24
s(V2008_006841
p25
Vcarpet
p26
tp27
Vrug
p28
s(V2010_006056
p29
Vbucket
p30
tp31
Vbottle
p32
s(V2009_002542
p33
Vrock
p34
tp35
Vconcrete
p36
s(V2009_000895
p37
Vpad
p38
tp39
Vmouse pad
p40
s(V2009_001789
p41
Vcarpet
p42
tp43
Vrug
p44
s(V2008_003344
p45
Vsand
p46
tp47
Vfix
p48
s(V2008_007081
p49
Vcarpet
p50
tp51
Vrug
p52
s(V2008_003262
p53
Vpad
p54
tp55
Vmouse pad
p56
s(V2010_001886
p57
Vcrate
p58
tp59
Vbasket
p60
s(V2009_000279
p61
Vdisc
p62
tp63
Vvinyl record
p64
s(V2008_003230
p65
Vrope
p66
tp67
Vwire
p68
s(V2010_001340
p69
Vcarpet
p70
tp71
Vfloor mat
p72
s(V2009_005001
p73
Vcarpet
p74
tp75
Vtable mat
p76
s(V2008_008258
p77
Vwindow
p78
tp79
Vfix
p80
s(V2008_003568
p81
Vpad
p82
tp83
Vmouse pad
p84
s(V2009_002885
p85
Vglass
p86
tp87
Vcup
p88
s(V2008_001692
p89
Vdisc
p90
tp91
Vvinyl record
p92
s(V2008_004501
p93
Vpad
p94
tp95
Vmouse pad
p96
s(V2010_001271
p97
Vcarpet
p98
tp99
Vrug
p100
s(V2010_005718
p101
Vrope
p102
tp103
Vfuel line
p104
s(V2009_002948
p105
Vcarpet
p106
tp107
Vrug
p108
s(V2009_002612
p109
Vcurtain
p110
tp111
Vwindow blinds
p112
s(V2008_005341
p113
Vcarriage
p114
tp115
Vfix
p116
s(V2010_001673
p117
Vcarpet
p118
tp119
Vfloor mat
p120
s(V2009_004352
p121
Vcarpet
p122
tp123
Vrug
p124
s(V2008_005651
p125
Vrope
p126
tp127
Vwire
p128
s(V2008_006606
p129
Vpad
p130
tp131
Vmouse pad
p132
s(V2008_000865
p133
Vpad
p134
tp135
Vmouse pad
p136
s(V2008_008148
p137
Vtrampoline
p138
tp139
Vfix
p140
s(V2008_005486
p141
Vboat
p142
tp143
Vfix
p144
s(V2009_002755
p145
Vdisc
p146
tp147
Vfix
p148
s(V2009_003748
p149
Vcarpet
p150
tp151
Vrig
p152
s(V2008_006005
p153
Vrope
p154
tp155
Vtube
p156
s(V2008_007324
p157
Vpad
p158
tp159
Vmouse pad
p160
s(V2008_001871
p161
Vcarpet
p162
tp163
Vrug
p164
s(V2008_000974
p165
Vcarpet
p166
tp167
Vfix
p168
s(V2009_003924
p169
Vwindow
p170
tp171
Vfix
p172
s(V2010_005676
p173
Vcap
p174
tp175
Vhat
p176
s(V2008_000149
p177
Vcarpet
p178
tp179
Vrug
p180
s(V2009_003676
p181
Vstove
p182
tp183
Vfire place
p184
s(V2008_003929
p185
Vglass
p186
tp187
Vcup
p188
s(V2009_004760
p189
Vcarpet
p190
tp191
Vrug
p192
s(V2008_003260
p193
Vsink
p194
tp195
Vbathtub
p196
s(V2008_008141
p197
Vbike
p198
tp199
Vmotorbike
p200
s(V2008_007327
p201
Vcage
p202
tp203
Vbird cage
p204
s(V2009_001414
p205
Vcap
p206
tp207
Vbottle cap
p208
s(V2009_001348
p209
Vcage
p210
tp211
Vbird cage
p212
s(V2008_003904
p213
Vbench
p214
tp215
Vcounter
p216
s(V2008_006390
p217
Vcarriage
p218
tp219
Vfix
p220
s(V2008_006689
p221
Vwindow
p222
tp223
Vwindow blinds
p224
s(V2008_004382
p225
Vrope
p226
tp227
Vwire
p228
s(V2010_003973
p229
Vrope
p230
tp231
Vfix
p232
s(V2009_001552
p233
Vdirt
p234
tp235
Vdirt mound
p236
s(V2008_007812
p237
Vcage
p238
tp239
Vbird feeder
p240
s(V2009_005063
p241
Vstopper
p242
tp243
Vcork
p244
s(V2008_001692
p245
Vdisc recorder
p246
tp247
Vequipment
p248
s(V2008_004844
p249
Vrock
p250
tp251
Vconcrete
p252
s(V2008_003179
p253
Vpad
p254
tp255
Vmouse pad
p256
s(V2008_007561
p257
Vpad
p258
tp259
Vmouse pad
p260
s(V2008_007074
p261
Vcarpet
p262
tp263
Vrug
p264
s(V2008_006848
p265
Vboat
p266
tp267
Vfix
p268
s(V2010_003689
p269
Vsand
p270
tp271
Vfix
p272
s(V2009_000186
p273
Vpad
p274
tp275
Vmouse pad
p276
s(V2010_004741
p277
Vcarpet
p278
tp279
Vrug
p280
s(V2008_002284
p281
Vcamel
p282
tp283
Vfix
p284
s(V2008_004487
p285
Vcarpet
p286
tp287
Vrug
p288
s(V2009_003959
p289
Vcarpet
p290
tp291
Vrug
p292
s(V2008_002952
p293
Vpad
p294
tp295
Vmouse pad
p296
s(V2008_007865
p297
Vpad
p298
tp299
Vmouse pad
p300
s(V2008_004451
p301
Vcarpet
p302
tp303
Vrug
p304
s(V2009_002500
p305
Vcarpet
p306
tp307
Vrug
p308
s(V2008_005783
p309
Vcap
p310
tp311
Vcork
p312
s(V2010_001344
p313
Vrope
p314
tp315
Vwire
p316
s(V2010_005930
p317
Vcap
p318
tp319
Vhat
p320
s(V2008_002413
p321
Vrope
p322
tp323
Vfix
p324
s(V2010_002098
p325
Vcarpet
p326
tp327
Vrug
p328
s(V2008_001283
p329
Vcage
p330
tp331
Vbird cage
p332
s(V2009_002493
p333
Vrope
p334
tp335
Vfix
p336
s(V2009_001821
p337
Vcarpet
p338
tp339
Vrug
p340
s(V2009_002457
p341
Vcart
p342
tp343
Vfix
p344
s(V2010_001199
p345
Vadornment
p346
tp347
Vplate
p348
s(V2008_007575
p349
Vpad
p350
tp351
Vmouse pad
p352
s(V2008_001815
p353
Vpad
p354
tp355
Vmouse pad
p356
s(V2010_003623
p357
Vboat
p358
tp359
Vfix
p360
s(V2008_008700
p361
Vpad
p362
tp363
Vcoaster
p364
s(V2008_001981
p365
Vsand
p366
tp367
Vfix
p368
s(V2009_002366
p369
Vpad
p370
tp371
Vmouse pad
p372
s(V2009_002858
p373
Vcarpet
p374
tp375
Vrug
p376
s(V2010_003177
p377
Vrope
p378
tp379
Vfix
p380
s(V2009_003214
p381
Vpad
p382
tp383
Vmouse pad
p384
s(V2008_001920
p385
Vcap
p386
tp387
Vbottle cap
p388
s(V2008_007615
p389
Vcup
p390
tp391
Vfix
p392
s(V2008_003789
p393
Vcage
p394
tp395
Vbird cage
p396
s(V2008_004836
p397
Vcarpet
p398
tp399
Vrug
p400
s(V2008_007523
p401
Vskateboard
p402
tp403
Vscooter
p404
s(V2008_004058
p405
Vcap
p406
tp407
Vhat
p408
s(V2008_000733
p409
Vcarpet
p410
tp411
Vrug
p412
s(V2008_000981
p413
Vcar
p414
tp415
Vsidecar
p416
s(V2009_004200
p417
Vdog chain
p418
tp419
Vdog
p420
s(V2008_003875
p421
Vstove
p422
tp423
Vfix
p424
s(V2008_008423
p425
Vwheel
p426
tp427
Vfix
p428
s(V2010_002336
p429
Vcarpet
p430
tp431
Vrug
p432
s(V2010_004679
p433
Vstick
p434
tp435
Vfix
p436
s(V2010_005149
p437
Vcap
p438
tp439
Vhat
p440
s(V2008_004830
p441
Vcarpet
p442
tp443
Vrug
p444
s(V2010_002890
p445
Vcarpet
p446
tp447
Vrug
p448
s(V2010_002713
p449
Vcage
p450
tp451
Vbird feeder
p452
s(V2008_000145
p453
Vdisc
p454
tp455
Vcd
p456
s(V2009_004053
p457
Vglass
p458
tp459
Vfix
p460
s(V2010_002419
p461
Vwindow
p462
tp463
Vfix
p464
s(V2009_000819
p465
Vcarpet
p466
tp467
Vrug
p468
s(V2008_005148
p469
Vcarpet
p470
tp471
Vrug
p472
s(V2009_001105
p473
Vcup
p474
tp475
Vcandle
p476
s(V2009_002849
p477
Vnotebook
p478
tp479
Vpaper
p480
s(V2009_002525
p481
Vcage
p482
tp483
Vbird feeder
p484
s(V2008_007755
p485
Vboat
p486
tp487
Vfix
p488
s(V2009_001874
p489
Vcarpet
p490
tp491
Vrug
p492
s(V2009_000555
p493
Vcap
p494
tp495
Vhat
p496
s(V2008_007482
p497
Vcurtain
p498
tp499
Vwindow blinds
p500
s(V2009_002469
p501
Vcarpet
p502
tp503
Vrug
p504
s(V2010_000645
p505
Vrock
p506
tp507
Vcar stop pillar
p508
s(V2008_001216
p509
Vstapler
p510
tp511
Vfix
p512
s(V2008_006003
p513
Vboat
p514
tp515
Vfix
p516
s(V2010_002397
p517
Vtent
p518
tp519
Vfix
p520
s(V2008_003315
p521
Vboat
p522
tp523
Vfix
p524
s(V2008_007175
p525
Vcarpet
p526
tp527
Vrug
p528
s(V2010_002308
p529
Vcarpet
p530
tp531
Vrug
p532
s(V2010_005847
p533
Vcarpet
p534
tp535
Vrug
p536
s(V2009_003178
p537
Vcarpet
p538
tp539
Vrug
p540
s(V2008_000641
p541
Vcarpet
p542
tp543
Vrug
p544
s(V2008_005037
p545
Vrope
p546
tp547
Vwire
p548
s(V2010_003520
p549
Vbedclothes
p550
tp551
Vcushion
p552
s(V2008_007570
p553
Vcap
p554
tp555
Vhat
p556
s(V2009_002497
p557
Vcap
p558
tp559
Vhat
p560
s(V2010_003204
p561
Vcarpet
p562
tp563
Vrug
p564
s(V2010_002097
p565
Vpad
p566
tp567
Vmouse pad
p568
s(V2009_000977
p569
Vpad
p570
tp571
Vmouse pad
p572
s(V2009_002386
p573
Vcarpet
p574
tp575
Vrug
p576
s(V2008_001079
p577
Vcarpet
p578
tp579
Vrug
p580
s(V2010_003512
p581
Vcap
p582
tp583
Vbottle cap
p584
s(V2009_001392
p585
Vcarpet
p586
tp587
Vrug
p588
s(V2009_003731
p589
Vcup
p590
tp591
Vfix
p592
s(V2008_003922
p593
Vcaliduct
p594
tp595
Vradiator
p596
s(V2008_005438
p597
Vcart
p598
tp599
Vfix
p600
s(V2008_004222
p601
Vpad
p602
tp603
Vmouse pad
p604
s(V2008_004881
p605
Vcarpet
p606
tp607
Vrug
p608
s(V2008_005056
p609
Vcap
p610
tp611
Vfix
p612
s(V2009_003349
p613
Vglass
p614
tp615
Vcup
p616
s(V2008_000138
p617
Vcap
p618
tp619
Vhat
p620
s(V2009_004800
p621
Vpad
p622
tp623
Vmouse pad
p624
s(V2009_004515
p625
Vstopper
p626
tp627
Vcork
p628
s(V2008_003914
p629
Vcarpet
p630
tp631
Vrug
p632
s(V2008_002237
p633
Vcarpet
p634
tp635
Vrug
p636
s(V2008_001544
p637
Vrope
p638
tp639
Vfix
p640
s(V2008_003808
p641
Vcap
p642
tp643
Vfix
p644
s(V2009_000852
p645
Vboat
p646
tp647
Vmountain
p648
s(V2010_000589
p649
Vsand
p650
tp651
Vfix
p652
s(V2010_003544
p653
Vboat
p654
tp655
Vfix
p656
s(V2010_005308
p657
Vcarpet
p658
tp659
Vrug
p660
s(V2010_006073
p661
Vcarpet
p662
tp663
Vrug
p664
s(V2008_003912
p665
Vboat
p666
tp667
Vfix
p668
s(V2009_003634
p669
Vruler
p670
tp671
Vhedge
p672
s(V2009_004301
p673
Vpad
p674
tp675
Vmouse pad
p676
s(V2008_007922
p677
Vcarpet
p678
tp679
Vrug
p680
s(V2009_002139
p681
Vglass
p682
tp683
Vcup
p684
s(V2010_005008
p685
Vcarpet
p686
tp687
Vrug
p688
s(V2008_005014
p689
Vcarpet
p690
tp691
Vrug
p692
s(V2008_002544
p693
Vrope
p694
tp695
Vwire
p696
s(V2009_003904
p697
Vcap
p698
tp699
Vhat
p700
s(V2008_007655
p701
Vcap
p702
tp703
Vhat
p704
s(V2008_003253
p705
Vrope
p706
tp707
Vfix
p708
s(V2008_002377
p709
Vcap
p710
tp711
Vhat
p712
s(V2009_002134
p713
Vrope
p714
tp715
Vfix
p716
s(V2010_001142
p717
Vcrutch
p718
tp719
Vwalking stick
p720
s(V2008_002045
p721
Vpad
p722
tp723
Vmouse pad
p724
s(V2009_003632
p725
Vcarpet
p726
tp727
Vrug
p728
s(V2009_003002
p729
Vcage
p730
tp731
Vbird cage
p732
s(V2008_006676
p733
Vcarpet
p734
tp735
Vrug
p736
s(V2009_004243
p737
Vcarpet
p738
tp739
Vfloor mat
p740
s(V2010_005180
p741
Vcarpet
p742
tp743
Vrug
p744
s(V2008_007334
p745
Vrope
p746
tp747
Vfix
p748
s(V2008_007921
p749
Vcap
p750
tp751
Vhat
p752
s(V2008_003680
p753
Vdirt
p754
tp755
Vdirt mound
p756
s(V2008_007218
p757
Vpad
p758
tp759
Vrug
p760
s(V2008_006233
p761
Vrope
p762
tp763
Vwire
p764
s(V2008_006095
p765
Vcarpet
p766
tp767
Vrug
p768
s(V2008_000472
p769
Vcage
p770
tp771
Vbird cage
p772
s(V2008_007439
p773
Vcarpet
p774
tp775
Vrug
p776
s(V2008_004384
p777
Vglass
p778
tp779
Vcup
p780
s(V2008_008528
p781
Vblade carrier
p782
tp783
Vbicycle
p784
s(V2008_000860
p785
Vcarpet
p786
tp787
Vrug
p788
s(V2010_004717
p789
Vrope
p790
tp791
Vwire
p792
s(V2008_000498
p793
Vstove
p794
tp795
Vbbq grill
p796
s(V2009_004889
p797
Vcarpet
p798
tp799
Vfix
p800
s(V2010_004712
p801
Vcap
p802
tp803
Vhat
p804
s(V2009_003850
p805
Vcarpet
p806
tp807
Vrug
p808
s(V2009_003759
p809
Vcarpet
p810
tp811
Vrig
p812
s(V2009_003625
p813
Vrope
p814
tp815
Vfix
p816
s(V2010_000408
p817
Vcarpet
p818
tp819
Vrug
p820
s(V2008_003834
p821
Vsink
p822
tp823
Vbathtub
p824
s(V2010_002527
p825
Vcarpet
p826
tp827
Vrug
p828
s(V2008_006629
p829
Vcarpet
p830
tp831
Vrug
p832
s(V2010_002637
p833
Vboat
p834
tp835
Vfix
p836
s(V2008_001297
p837
Vsand
p838
tp839
Vfix
p840
s(V2008_005008
p841
Vrope
p842
tp843
Vwire
p844
s(V2009_000041
p845
Vrope
p846
tp847
Vwire
p848
s(V2010_003197
p849
Vcarpet
p850
tp851
Vfix
p852
s(V2010_005992
p853
Vcarpet
p854
tp855
Vrug
p856
s(V2008_004382
p857
Vpad
p858
tp859
Vmouse pad
p860
s(V2010_000999
p861
Vcarpet
p862
tp863
Vfix
p864
s(V2010_001189
p865
Vcarpet
p866
tp867
Vrug
p868
s(V2009_004359
p869
Vpad
p870
tp871
Vmouse pad
p872
s(V2010_004816
p873
Vdisc
p874
tp875
Vcd
p876
s(V2010_000405
p877
Vpad
p878
tp879
Vmouse pad
p880
s(V2008_008134
p881
Vcage
p882
tp883
Vbird cage
p884
s(V2008_003150
p885
Vrope
p886
tp887
Vwire
p888
s(V2008_006662
p889
Vpad
p890
tp891
Vfix
p892
s(V2008_000045
p893
Vbulb
p894
tp895
Vceiling
p896
s(V2008_002376
p897
Vcarpet
p898
tp899
Vrug
p900
s(V2010_000629
p901
Vsand
p902
tp903
Vfix
p904
s(V2008_007503
p905
Vcarpet
p906
tp907
Vrug
p908
s(V2009_001573
p909
Vrope
p910
tp911
Vfix
p912
s.