(dp0
(V2010_003643
p1
Vbar
p2
tp3
Vmirror
p4
s(V2008_007293
p5
Vbamboo weaving
p6
tp7
V
p8
s(V2008_007423
p9
Vcage
p10
tp11
Vbird feeder
p12
s(V2009_002525
p13
g10
tp14
g12
s(V2009_001434
p15
Vbar counter
p16
tp17
g8
s(V2010_006056
p18
Vbucket
p19
tp20
Vbottle
p21
s(V2010_002536
p22
Vbathtub
p23
tp24
Vbird bath
p25
s(V2008_006003
p26
Vboat
p27
tp28
Vfix
p29
s(V2008_003315
p30
g27
tp31
g29
s(V2010_003520
p32
Vbedclothes
p33
tp34
Vcushion
p35
s(V2008_008528
p36
Vblade carrier
p37
tp38
Vbicycle
p39
s(V2010_003512
p40
Vcap
p41
tp42
Vbottle cap
p43
s(V2008_006403
p44
Vair conditioner
p45
tp46
Vcomputer
p47
s(V2008_003922
p48
Vcaliduct
p49
tp50
Vradiator
p51
s(V2008_003947
p52
Vbarrel
p53
tp54
Vtrash bin
p55
s(V2010_003149
p56
Vequipment
p57
tp58
Vdumbbell
p59
s(V2008_000138
p60
g41
tp61
Vhat
p62
s(V2008_005486
p63
g27
tp64
g29
s(V2010_005676
p65
g41
tp66
g62
s(V2009_000852
p67
g27
tp68
Vmountain
p69
s(V2010_003544
p70
g27
tp71
g29
s(V2008_008141
p72
Vbike
p73
tp74
Vmotorbike
p75
s(V2008_003912
p76
g27
tp77
g29
s(V2008_007327
p78
g10
tp79
Vbird cage
p80
s(V2009_003904
p81
g41
tp82
g62
s(V2009_001348
p83
g10
tp84
g80
s(V2009_003347
p85
g16
tp86
g8
s(V2008_003904
p87
Vbench
p88
tp89
Vcounter
p90
s(V2010_003367
p91
Vbox
p92
tp93
g8
s(V2008_007812
p94
g10
tp95
g12
s(V2008_003463
p96
g45
tp97
Vcooler
p98
s(V2008_002377
p99
g41
tp100
g62
s(V2009_003002
p101
g10
tp102
g80
s(V2008_006848
p103
g27
tp104
g29
s(V2008_000472
p105
g10
tp106
g80
s(V2009_001414
p107
g41
tp108
g43
s(V2010_005930
p109
g41
tp110
g62
s(V2008_001283
p111
g10
tp112
g80
s(V2010_001199
p113
Vadornment
p114
tp115
Vplate
p116
s(V2010_003623
p117
g27
tp118
g29
s(V2010_002637
p119
g27
tp120
g29
s(V2008_007755
p121
g27
tp122
g29
s(V2008_001920
p123
g41
tp124
g43
s(V2008_003789
p125
g10
tp126
g80
s(V2008_004058
p127
g41
tp128
g62
s(V2008_000981
p129
Vcar
p130
tp131
Vsidecar
p132
s(V2010_004712
p133
g41
tp134
g62
s(V2008_008134
p135
g10
tp136
g80
s(V2008_003168
p137
Vbaby bed
p138
tp139
g8
s(V2010_005149
p140
g41
tp141
g62
s(V2008_000045
p142
Vbulb
p143
tp144
Vceiling
p145
s(V2010_002713
p146
g10
tp147
g12
s.