(dp0
(V2009_002053
p1
Vcleaner
p2
tp3
Vspray bottle
p4
s(V2010_001271
p5
Vcarpet
p6
tp7
Vrug
p8
s(V2008_006515
p9
Vclamp
p10
tp11
Vclip
p12
s(V2010_002263
p13
Vbag
p14
tp15
Vpack
p16
s(V2010_005403
p17
Vbag
p18
tp19
Vpack
p20
s(V2009_000279
p21
Vdisc
p22
tp23
Vvinyl record
p24
s(V2008_008258
p25
Vwindow
p26
tp27
Vfix
p28
s(V2008_002885
p29
Vnotebook
p30
tp31
Vlaptop
p32
s(V2008_007103
p33
Vbag
p34
tp35
Vpack
p36
s(V2009_002885
p37
Vglass
p38
tp39
Vcup
p40
s(V2009_002948
p41
Vcarpet
p42
tp43
Vrug
p44
s(V2008_004382
p45
Vpad
p46
tp47
Vmouse pad
p48
s(V2008_005341
p49
Vcarriage
p50
tp51
Vfix
p52
s(V2010_000083
p53
Vbag
p54
tp55
Vpack
p56
s(V2008_002384
p57
Vbag
p58
tp59
Vpack
p60
s(V2008_002880
p61
Vbag
p62
tp63
Vpack
p64
s(V2008_006606
p65
Vpad
p66
tp67
Vmouse pad
p68
s(V2008_008148
p69
Vtrampoline
p70
tp71
Vfix
p72
s(V2008_004966
p73
Vbag
p74
tp75
Vpack
p76
s(V2009_002755
p77
Vdisc
p78
tp79
Vfix
p80
s(V2008_000246
p81
Vclippers
p82
tp83
Vfix
p84
s(V2010_002172
p85
Vbag
p86
tp87
Vpack
p88
s(V2009_004760
p89
Vcarpet
p90
tp91
Vrug
p92
s(V2008_008141
p93
Vbike
p94
tp95
Vmotorbike
p96
s(V2009_003904
p97
Vcap
p98
tp99
Vhat
p100
s(V2009_003924
p101
Vwindow
p102
tp103
Vfix
p104
s(V2009_004221
p105
Vbag
p106
tp107
Vpack
p108
s(V2010_003973
p109
Vrope
p110
tp111
Vfix
p112
s(V2009_000066
p113
Vcattle
p114
tp115
Vfix
p116
s(V2009_001552
p117
Vdirt
p118
tp119
Vdirt mound
p120
s(V2009_005063
p121
Vstopper
p122
tp123
Vcork
p124
s(V2010_003040
p125
Vbag
p126
tp127
Vpack
p128
s(V2008_006848
p129
Vboat
p130
tp131
Vfix
p132
s(V2009_000186
p133
Vpad
p134
tp135
Vmouse pad
p136
s(V2008_008097
p137
Vbag
p138
tp139
Vpack
p140
s(V2008_002952
p141
Vpad
p142
tp143
Vmouse pad
p144
s(V2008_000934
p145
Vbag
p146
tp147
Vpack
p148
s(V2008_003646
p149
Vclamp
p150
tp151
Vtong
p152
s(V2008_007865
p153
Vpad
p154
tp155
Vmouse pad
p156
s(V2009_002612
p157
Vcurtain
p158
tp159
Vwindow blinds
p160
s(V2009_004352
p161
Vcarpet
p162
tp163
Vrug
p164
s(V2010_004596
p165
Vbag
p166
tp167
Vpack
p168
s(V2008_002413
p169
Vrope
p170
tp171
Vfix
p172
s(V2008_001283
p173
Vcage
p174
tp175
Vbird cage
p176
s(V2010_005952
p177
Vcoin machine
p178
tp179
Vvending machine
p180
s(V2008_007575
p181
Vpad
p182
tp183
Vmouse pad
p184
s(V2008_004188
p185
Vbag
p186
tp187
Vpack
p188
s(V2010_003623
p189
Vboat
p190
tp191
Vfix
p192
s(V2008_008700
p193
Vpad
p194
tp195
Vcoaster
p196
s(V2009_004518
p197
Vbag
p198
tp199
Vpack
p200
s(V2009_001976
p201
Vnotebook
p202
tp203
Vlaptop
p204
s(V2008_005014
p205
Vcarpet
p206
tp207
Vrug
p208
s(V2008_002544
p209
Vrope
p210
tp211
Vwire
p212
s(V2009_001728
p213
Vboard
p214
tp215
Vfix
p216
s(V2008_003875
p217
Vstove
p218
tp219
Vfix
p220
s(V2010_003912
p221
Vbag
p222
tp223
Vpack
p224
s(V2009_003625
p225
Vrope
p226
tp227
Vfix
p228
s(V2009_003453
p229
Vbag
p230
tp231
Vpack
p232
s(V2009_003091
p233
Vbag
p234
tp235
Vpack
p236
s(V2009_000704
p237
Vbag
p238
tp239
Vpack
p240
s(V2008_000145
p241
Vdisc
p242
tp243
Vcd
p244
s(V2009_004053
p245
Vglass
p246
tp247
Vfix
p248
s(V2010_002419
p249
Vwindow
p250
tp251
Vfix
p252
s(V2008_005148
p253
Vcarpet
p254
tp255
Vrug
p256
s(V2009_002525
p257
Vcage
p258
tp259
Vbird feeder
p260
s(V2009_000555
p261
Vcap
p262
tp263
Vhat
p264
s(V2008_007482
p265
Vcurtain
p266
tp267
Vwindow blinds
p268
s(V2009_005183
p269
Vbag
p270
tp271
Vpack
p272
s(V2009_000559
p273
Vcattle
p274
tp275
Vfix
p276
s(V2009_005156
p277
Vbag
p278
tp279
Vpack
p280
s(V2009_003975
p281
Vcattle
p282
tp283
Vfix
p284
s(V2010_005847
p285
Vcarpet
p286
tp287
Vrug
p288
s(V2008_007570
p289
Vcap
p290
tp291
Vhat
p292
s(V2009_001778
p293
Vbag
p294
tp295
Vpack
p296
s(V2009_002497
p297
Vcap
p298
tp299
Vhat
p300
s(V2010_002097
p301
Vpad
p302
tp303
Vmouse pad
p304
s(V2008_006081
p305
Vboard
p306
tp307
Vdart board
p308
s(V2008_005739
p309
Vbag
p310
tp311
Vpack
p312
s(V2008_001079
p313
Vcarpet
p314
tp315
Vrug
p316
s(V2009_003349
p317
Vglass
p318
tp319
Vcup
p320
s(V2009_004515
p321
Vstopper
p322
tp323
Vcork
p324
s(V2008_003808
p325
Vcap
p326
tp327
Vfix
p328
s(V2009_000852
p329
Vboat
p330
tp331
Vmountain
p332
s(V2010_000589
p333
Vsand
p334
tp335
Vfix
p336
s(V2010_003544
p337
Vboat
p338
tp339
Vfix
p340
s(V2009_004519
p341
Vnotebook
p342
tp343
Vpaper
p344
s(V2009_002139
p345
Vglass
p346
tp347
Vcup
p348
s(V2008_003253
p349
Vrope
p350
tp351
Vfix
p352
s(V2009_002134
p353
Vrope
p354
tp355
Vfix
p356
s(V2009_000977
p357
Vpad
p358
tp359
Vmouse pad
p360
s(V2009_003632
p361
Vcarpet
p362
tp363
Vrug
p364
s(V2010_005180
p365
Vcarpet
p366
tp367
Vrug
p368
s(V2008_006233
p369
Vrope
p370
tp371
Vwire
p372
s(V2009_003193
p373
Vbag
p374
tp375
Vpack
p376
s(V2008_005742
p377
Vbag
p378
tp379
Vpack
p380
s(V2010_000356
p381
Vbag
p382
tp383
Vpack
p384
s(V2010_004154
p385
Vbag
p386
tp387
Vpack
p388
s(V2008_002329
p389
Vbag
p390
tp391
Vpack
p392
s(V2008_001907
p393
Vclip
p394
tp395
Vhair clip
p396
s(V2010_000408
p397
Vcarpet
p398
tp399
Vrug
p400
s(V2010_002637
p401
Vboat
p402
tp403
Vfix
p404
s(V2009_000041
p405
Vrope
p406
tp407
Vwire
p408
s(V2008_003193
p409
Vplastic
p410
tp411
Vbag
p412
s(V2010_003197
p413
Vcarpet
p414
tp415
Vfix
p416
s(V2008_002700
p417
Vbag
p418
tp419
Vpack
p420
s(V2008_001004
p421
Vboard
p422
tp423
Vcork board
p424
s(V2010_004050
p425
Vbook
p426
tp427
Vfix
p428
s(V2010_001189
p429
Vcarpet
p430
tp431
Vrug
p432
s(V2010_000740
p433
Vbag
p434
tp435
Vpack
p436
s(V2008_007922
p437
Vcarpet
p438
tp439
Vrug
p440
s(V2010_000405
p441
Vpad
p442
tp443
Vmouse pad
p444
s(V2008_008134
p445
Vcage
p446
tp447
Vbird cage
p448
s(V2010_006011
p449
Vcomputer
p450
tp451
Vtvmonitor
p452
s(V2010_001552
p453
Vbag
p454
tp455
Vpack
p456
s(V2010_003649
p457
Vbag
p458
tp459
Vpack
p460
s(V2010_001886
p461
Vcrate
p462
tp463
Vbasket
p464
s(V2008_007496
p465
Vcarpet
p466
tp467
Vrug
p468
s(V2009_002915
p469
Vcarpet
p470
tp471
Vrug
p472
s(V2010_006056
p473
Vbucket
p474
tp475
Vbottle
p476
s(V2009_002542
p477
Vrock
p478
tp479
Vconcrete
p480
s(V2010_000308
p481
Vbag
p482
tp483
Vpack
p484
s(V2009_003247
p485
Vbag
p486
tp487
Vpack
p488
s(V2009_000096
p489
Vbedclothes
p490
tp491
Vcushion
p492
s(V2010_000691
p493
Vbook
p494
tp495
Vfix
p496
s(V2008_006841
p497
Vcarpet
p498
tp499
Vrug
p500
s(V2009_005001
p501
Vcarpet
p502
tp503
Vtable mat
p504
s(V2010_005825
p505
Vclamp
p506
tp507
Vtong
p508
s(V2008_007987
p509
Vbag
p510
tp511
Vpack
p512
s(V2010_005721
p513
Vbag
p514
tp515
Vpack
p516
s(V2008_000865
p517
Vpad
p518
tp519
Vmouse pad
p520
s(V2008_000974
p521
Vcarpet
p522
tp523
Vfix
p524
s(V2008_007478
p525
Vbag
p526
tp527
Vpack
p528
s(V2010_005676
p529
Vcap
p530
tp531
Vhat
p532
s(V2008_003260
p533
Vsink
p534
tp535
Vbathtub
p536
s(V2009_001414
p537
Vcap
p538
tp539
Vbottle cap
p540
s(V2010_003227
p541
Vbedclothes
p542
tp543
Vcushion
p544
s(V2009_003208
p545
Vbag
p546
tp547
Vpack
p548
s(V2008_006390
p549
Vcarriage
p550
tp551
Vfix
p552
s(V2008_007812
p553
Vcage
p554
tp555
Vbird feeder
p556
s(V2009_003518
p557
Vchain
p558
tp559
Vbridle
p560
s(V2008_006102
p561
Vbag
p562
tp563
Vpack
p564
s(V2010_003689
p565
Vsand
p566
tp567
Vfix
p568
s(V2008_000860
p569
Vcarpet
p570
tp571
Vrug
p572
s(V2008_005329
p573
Vbag
p574
tp575
Vpack
p576
s(V2010_000557
p577
Vbag
p578
tp579
Vpack
p580
s(V2008_008310
p581
Vbag
p582
tp583
Vpack
p584
s(V2009_001789
p585
Vcarpet
p586
tp587
Vrug
p588
s(V2008_006710
p589
Vbag
p590
tp591
Vpack
p592
s(V2010_002098
p593
Vcarpet
p594
tp595
Vrug
p596
s(V2010_001199
p597
Vadornment
p598
tp599
Vplate
p600
s(V2008_003202
p601
Vbag
p602
tp603
Vpack
p604
s(V2008_001815
p605
Vpad
p606
tp607
Vmouse pad
p608
s(V2009_004758
p609
Vbag
p610
tp611
Vpack
p612
s(V2009_002858
p613
Vcarpet
p614
tp615
Vrug
p616
s(V2009_000183
p617
Vbag
p618
tp619
Vpack
p620
s(V2009_003214
p621
Vpad
p622
tp623
Vmouse pad
p624
s(V2008_001920
p625
Vcap
p626
tp627
Vbottle cap
p628
s(V2008_007615
p629
Vcup
p630
tp631
Vfix
p632
s(V2008_002284
p633
Vcamel
p634
tp635
Vfix
p636
s(V2008_006887
p637
Vcomputer
p638
tp639
Vfix
p640
s(V2008_005359
p641
Vbag
p642
tp643
Vpack
p644
s(V2008_000733
p645
Vcarpet
p646
tp647
Vrug
p648
s(V2009_003800
p649
Vbag
p650
tp651
Vpack
p652
s(V2009_001091
p653
Vbag
p654
tp655
Vpack
p656
s(V2009_000697
p657
Vnotebook
p658
tp659
Vpap
p660
s(V2010_005008
p661
Vcarpet
p662
tp663
Vrug
p664
s(V2010_001430
p665
Vbag
p666
tp667
Vpack
p668
s(V2009_003196
p669
Vbag
p670
tp671
Vpack
p672
s(V2010_002713
p673
Vcage
p674
tp675
Vbird feeder
p676
s(V2009_001105
p677
Vcup
p678
tp679
Vcandle
p680
s(V2009_003676
p681
Vstove
p682
tp683
Vfire place
p684
s(V2008_001216
p685
Vstapler
p686
tp687
Vfix
p688
s(V2008_004140
p689
Vbag
p690
tp691
Vpack
p692
s(V2008_006031
p693
Vbag
p694
tp695
Vpack
p696
s(V2009_000641
p697
Vcattle
p698
tp699
Vcow
p700
s(V2008_003467
p701
Vbag
p702
tp703
Vpack
p704
s(V2008_006967
p705
Vbag
p706
tp707
Vpack
p708
s(V2010_003520
p709
Vbedclothes
p710
tp711
Vcushion
p712
s(V2009_000819
p713
Vcarpet
p714
tp715
Vrug
p716
s(V2008_007175
p717
Vcarpet
p718
tp719
Vrug
p720
s(V2009_003049
p721
Vmachine
p722
tp723
Vfix
p724
s(V2008_006776
p725
Vbag
p726
tp727
Vpack
p728
s(V2010_003204
p729
Vcarpet
p730
tp731
Vrug
p732
s(V2010_003512
p733
Vcap
p734
tp735
Vbottle cap
p736
s(V2009_001392
p737
Vcarpet
p738
tp739
Vrug
p740
s(V2008_008598
p741
Vbag
p742
tp743
Vpack
p744
s(V2009_002651
p745
Vbag
p746
tp747
Vpack
p748
s(V2008_005438
p749
Vcart
p750
tp751
Vfix
p752
s(V2008_004081
p753
Vbag
p754
tp755
Vpack
p756
s(V2008_001297
p757
Vsand
p758
tp759
Vfix
p760
s(V2010_004493
p761
Vchain
p762
tp763
Vfix
p764
s(V2009_001679
p765
Vbell
p766
tp767
Vcandle holders
p768
s(V2008_001544
p769
Vrope
p770
tp771
Vfix
p772
s(V2008_004549
p773
Vbag
p774
tp775
Vpack
p776
s(V2008_006807
p777
Vbag
p778
tp779
Vpack
p780
s(V2008_004040
p781
Vbag
p782
tp783
Vpack
p784
s(V2010_005810
p785
Vbag
p786
tp787
Vpack
p788
s(V2010_006073
p789
Vcarpet
p790
tp791
Vrug
p792
s(V2008_003912
p793
Vboat
p794
tp795
Vfix
p796
s(V2008_008619
p797
Vbag
p798
tp799
Vpack
p800
s(V2008_002868
p801
Vbag
p802
tp803
Vpack
p804
s(V2010_004125
p805
Vbag
p806
tp807
Vpack
p808
s(V2009_001540
p809
Vboard
p810
tp811
Vfence
p812
s(V2008_004471
p813
Vbag
p814
tp815
Vpack
p816
s(V2008_002377
p817
Vcap
p818
tp819
Vhat
p820
s(V2009_004580
p821
Vbag
p822
tp823
Vpack
p824
s(V2009_003850
p825
Vcarpet
p826
tp827
Vrug
p828
s(V2008_005037
p829
Vbag
p830
tp831
Vpack
p832
s(V2008_008064
p833
Vbag
p834
tp835
Vpack
p836
s(V2008_007334
p837
Vrope
p838
tp839
Vfix
p840
s(V2008_007921
p841
Vcap
p842
tp843
Vhat
p844
s(V2009_001098
p845
Vbag
p846
tp847
Vpack
p848
s(V2010_000133
p849
Vbag
p850
tp851
Vpack
p852
s(V2009_000944
p853
Vnotebook
p854
tp855
Vunknown
p856
s(V2009_005300
p857
Vbag
p858
tp859
Vpack
p860
s(V2010_001340
p861
Vcarpet
p862
tp863
Vfloor mat
p864
s(V2008_008528
p865
Vblade carrier
p866
tp867
Vbicycle
p868
s(V2008_005315
p869
Vbag
p870
tp871
Vpack
p872
s(V2008_008443
p873
Vbag
p874
tp875
Vpack
p876
s(V2008_004858
p877
Vbag
p878
tp879
Vpack
p880
s(V2009_004984
p881
Vbag
p882
tp883
Vpack
p884
s(V2009_003759
p885
Vcarpet
p886
tp887
Vrig
p888
s(V2009_002054
p889
Vbag
p890
tp891
Vpack
p892
s(V2008_003834
p893
Vsink
p894
tp895
Vbathtub
p896
s(V2010_002336
p897
Vcarpet
p898
tp899
Vrug
p900
s(V2008_007755
p901
Vboat
p902
tp903
Vfix
p904
s(V2009_004224
p905
Vbag
p906
tp907
Vpack
p908
s(V2010_005992
p909
Vcarpet
p910
tp911
Vrug
p912
s(V2009_001508
p913
Vbag
p914
tp915
Vpack
p916
s(V2008_005055
p917
Vbag
p918
tp919
Vpack
p920
s(V2010_004816
p921
Vdisc
p922
tp923
Vcd
p924
s(V2009_004800
p925
Vpad
p926
tp927
Vmouse pad
p928
s(V2008_002774
p929
Vbag
p930
tp931
Vpack
p932
s(V2008_001914
p933
Vbag
p934
tp935
Vpack
p936
s(V2009_003607
p937
Vbag
p938
tp939
Vpack
p940
s(V2008_000045
p941
Vbulb
p942
tp943
Vceiling
p944
s(V2009_005286
p945
Vbag
p946
tp947
Vpack
p948
s(V2010_004816
p949
Vbag
p950
tp951
Vpack
p952
s(V2009_002508
p953
Vboard
p954
tp955
Vfix
p956
s(V2008_001486
p957
Vglass
p958
tp959
Vcup
p960
s(V2010_003108
p961
Vbag
p962
tp963
Vpack
p964
s(V2009_000895
p965
Vpad
p966
tp967
Vmouse pad
p968
s(V2010_000245
p969
Vchain
p970
tp971
Vfix
p972
s(V2008_003037
p973
Vbag
p974
tp975
Vpack
p976
s(V2008_007090
p977
Vbag
p978
tp979
Vpack
p980
s(V2008_004501
p981
Vpad
p982
tp983
Vmouse pad
p984
s(V2010_002796
p985
Vclamp
p986
tp987
Vtong
p988
s(V2009_001925
p989
Vclippers
p990
tp991
Vscissors
p992
s(V2009_001135
p993
Vbag
p994
tp995
Vpack
p996
s(V2009_002524
p997
Vbag
p998
tp999
Vpack
p1000
s(V2009_001447
p1001
Vbag
p1002
tp1003
Vpack
p1004
s(V2008_005651
p1005
Vrope
p1006
tp1007
Vwire
p1008
s(V2008_004492
p1009
Vchessboard
p1010
tp1011
Vfix
p1012
s(V2009_004645
p1013
Vbag
p1014
tp1015
Vpack
p1016
s(V2008_005248
p1017
Vbag
p1018
tp1019
Vpack
p1020
s(V2008_006005
p1021
Vrope
p1022
tp1023
Vtube
p1024
s(V2008_007324
p1025
Vpad
p1026
tp1027
Vmouse pad
p1028
s(V2008_001871
p1029
Vcarpet
p1030
tp1031
Vrug
p1032
s(V2008_007459
p1033
Vbag
p1034
tp1035
Vpack
p1036
s(V2010_003949
p1037
Vbag
p1038
tp1039
Vpack
p1040
s(V2008_003929
p1041
Vglass
p1042
tp1043
Vcup
p1044
s(V2008_007327
p1045
Vcage
p1046
tp1047
Vbird cage
p1048
s(V2009_001348
p1049
Vcage
p1050
tp1051
Vbird cage
p1052
s(V2008_003904
p1053
Vbench
p1054
tp1055
Vcounter
p1056
s(V2008_001580
p1057
Vbag
p1058
tp1059
Vpack
p1060
s(V2008_004844
p1061
Vrock
p1062
tp1063
Vconcrete
p1064
s(V2009_000990
p1065
Vbag
p1066
tp1067
Vpack
p1068
s(V2008_007561
p1069
Vpad
p1070
tp1071
Vmouse pad
p1072
s(V2008_005989
p1073
Vbag
p1074
tp1075
Vpack
p1076
s(V2008_006047
p1077
Vbag
p1078
tp1079
Vpack
p1080
s(V2010_004168
p1081
Vbag
p1082
tp1083
Vpack
p1084
s(V2008_002576
p1085
Vbag
p1086
tp1087
Vpack
p1088
s(V2008_004329
p1089
Vboard
p1090
tp1091
Vwhite board
p1092
s(V2008_003969
p1093
Vbag
p1094
tp1095
Vpack
p1096
s(V2009_001480
p1097
Vbag
p1098
tp1099
Vpack
p1100
s(V2010_003894
p1101
Vbag
p1102
tp1103
Vpack
p1104
s(V2008_005783
p1105
Vcap
p1106
tp1107
Vcork
p1108
s(V2009_003490
p1109
Vbag
p1110
tp1111
Vpack
p1112
s(V2008_007872
p1113
Vbag
p1114
tp1115
Vpack
p1116
s(V2009_001821
p1117
Vcarpet
p1118
tp1119
Vrug
p1120
s(V2009_001758
p1121
Vbag
p1122
tp1123
Vpack
p1124
s(V2008_001981
p1125
Vsand
p1126
tp1127
Vfix
p1128
s(V2008_003230
p1129
Vrope
p1130
tp1131
Vwire
p1132
s(V2008_001967
p1133
Vbag
p1134
tp1135
Vpack
p1136
s(V2010_003177
p1137
Vrope
p1138
tp1139
Vfix
p1140
s(V2008_007523
p1141
Vskateboard
p1142
tp1143
Vscooter
p1144
s(V2009_004200
p1145
Vdog chain
p1146
tp1147
Vdog
p1148
s(V2010_005906
p1149
Vbag
p1150
tp1151
Vpack
p1152
s(V2008_008730
p1153
Vboard
p1154
tp1155
Vwhiteboard
p1156
s(V2009_002366
p1157
Vpad
p1158
tp1159
Vmouse pad
p1160
s(V2010_004679
p1161
Vstick
p1162
tp1163
Vfix
p1164
s(V2010_002890
p1165
Vcarpet
p1166
tp1167
Vrug
p1168
s(V2009_002500
p1169
Vcarpet
p1170
tp1171
Vrug
p1172
s(V2009_002806
p1173
Vbag
p1174
tp1175
Vpack
p1176
s(V2010_001673
p1177
Vcarpet
p1178
tp1179
Vfloor mat
p1180
s(V2009_001874
p1181
Vcarpet
p1182
tp1183
Vrug
p1184
s(V2010_000645
p1185
Vrock
p1186
tp1187
Vcar stop pillar
p1188
s(V2009_004307
p1189
Vbag
p1190
tp1191
Vpack
p1192
s(V2008_006003
p1193
Vboat
p1194
tp1195
Vfix
p1196
s(V2010_002397
p1197
Vtent
p1198
tp1199
Vfix
p1200
s(V2008_006969
p1201
Vbag
p1202
tp1203
Vpack
p1204
s(V2008_000641
p1205
Vcarpet
p1206
tp1207
Vrug
p1208
s(V2008_005037
p1209
Vrope
p1210
tp1211
Vwire
p1212
s(V2008_008221
p1213
Vbag
p1214
tp1215
Vpack
p1216
s(V2009_002386
p1217
Vcarpet
p1218
tp1219
Vrug
p1220
s(V2008_006299
p1221
Vnotebook
p1222
tp1223
Vpaper
p1224
s(V2008_003922
p1225
Vcaliduct
p1226
tp1227
Vradiator
p1228
s(V2009_004889
p1229
Vcarpet
p1230
tp1231
Vfix
p1232
s(V2009_000471
p1233
Vcattle
p1234
tp1235
Vcow
p1236
s(V2008_000138
p1237
Vcap
p1238
tp1239
Vhat
p1240
s(V2009_002457
p1241
Vcart
p1242
tp1243
Vfix
p1244
s(V2008_003344
p1245
Vsand
p1246
tp1247
Vfix
p1248
s(V2008_008579
p1249
Vbag
p1250
tp1251
Vpack
p1252
s(V2010_001592
p1253
Vbag
p1254
tp1255
Vpack
p1256
s(V2008_004278
p1257
Vbag
p1258
tp1259
Vpack
p1260
s(V2009_002224
p1261
Vboard
p1262
tp1263
Vfence
p1264
s(V2010_005308
p1265
Vcarpet
p1266
tp1267
Vrug
p1268
s(V2009_001069
p1269
Vcomputer
p1270
tp1271
Vfix
p1272
s(V2008_003686
p1273
Vcoin machine
p1274
tp1275
Vvending machine
p1276
s(V2010_004741
p1277
Vcarpet
p1278
tp1279
Vrug
p1280
s(V2010_000375
p1281
Vbag
p1282
tp1283
Vpack
p1284
s(V2008_006124
p1285
Vbag
p1286
tp1287
Vpack
p1288
s(V2010_001606
p1289
Vbag
p1290
tp1291
Vpack
p1292
s(V2008_008382
p1293
Vbag
p1294
tp1295
Vpack
p1296
s(V2009_003002
p1297
Vcage
p1298
tp1299
Vbird cage
p1300
s(V2008_006676
p1301
Vcarpet
p1302
tp1303
Vrug
p1304
s(V2009_000901
p1305
Vbag
p1306
tp1307
Vpack
p1308
s(V2009_004243
p1309
Vcarpet
p1310
tp1311
Vfloor mat
p1312
s(V2009_000021
p1313
Vbag
p1314
tp1315
Vpack
p1316
s(V2008_003140
p1317
Vbag
p1318
tp1319
Vpack
p1320
s(V2008_008275
p1321
Vbag
p1322
tp1323
Vpack
p1324
s(V2008_007218
p1325
Vpad
p1326
tp1327
Vrug
p1328
s(V2008_006629
p1329
Vcarpet
p1330
tp1331
Vrug
p1332
s(V2008_008637
p1333
Vbag
p1334
tp1335
Vpack
p1336
s(V2008_000472
p1337
Vcage
p1338
tp1339
Vbird cage
p1340
s(V2008_001768
p1341
Vnotebook
p1342
tp1343
Vfix
p1344
s(V2009_004701
p1345
Vbag
p1346
tp1347
Vpack
p1348
s(V2008_004866
p1349
Vbag
p1350
tp1351
Vpack
p1352
s(V2010_004712
p1353
Vcap
p1354
tp1355
Vhat
p1356
s(V2010_003628
p1357
Vbag
p1358
tp1359
Vpack
p1360
s(V2009_004177
p1361
Vbag
p1362
tp1363
Vpack
p1364
s(V2010_002527
p1365
Vcarpet
p1366
tp1367
Vrug
p1368
s(V2008_005008
p1369
Vrope
p1370
tp1371
Vwire
p1372
s(V2008_007282
p1373
Vbag
p1374
tp1375
Vpack
p1376
s(V2010_000999
p1377
Vcarpet
p1378
tp1379
Vfix
p1380
s(V2010_003468
p1381
Vbag
p1382
tp1383
Vpack
p1384
s(V2008_007964
p1385
Vbag
p1386
tp1387
Vpack
p1388
s(V2009_003956
p1389
Vcattle
p1390
tp1391
Vfix
p1392
s(V2009_000305
p1393
Vbag
p1394
tp1395
Vpack
p1396
s(V2008_002376
p1397
Vcarpet
p1398
tp1399
Vrug
p1400
s(V2008_004836
p1401
Vcarpet
p1402
tp1403
Vrug
p1404
s(V2009_001573
p1405
Vrope
p1406
tp1407
Vfix
p1408
s(V2008_005781
p1409
Vrope
p1410
tp1411
Vwire
p1412
s(V2010_004247
p1413
Vsaddle
p1414
tp1415
Vfix
p1416
s(V2008_007423
p1417
Vcage
p1418
tp1419
Vbird feeder
p1420
s(V2008_004819
p1421
Vbag
p1422
tp1423
Vpack
p1424
s(V2010_004889
p1425
Vbag
p1426
tp1427
Vpack
p1428
s(V2008_007081
p1429
Vcarpet
p1430
tp1431
Vrug
p1432
s(V2008_003262
p1433
Vpad
p1434
tp1435
Vmouse pad
p1436
s(V2009_002350
p1437
Vbag
p1438
tp1439
Vpack
p1440
s(V2008_003568
p1441
Vpad
p1442
tp1443
Vmouse pad
p1444
s(V2009_002469
p1445
Vcarpet
p1446
tp1447
Vrug
p1448
s(V2008_001692
p1449
Vdisc
p1450
tp1451
Vvinyl record
p1452
s(V2010_005718
p1453
Vrope
p1454
tp1455
Vfuel line
p1456
s(V2010_001366
p1457
Vbag
p1458
tp1459
Vpack
p1460
s(V2010_001891
p1461
Vbag
p1462
tp1463
Vpack
p1464
s(V2008_005486
p1465
Vboat
p1466
tp1467
Vfix
p1468
s(V2009_003748
p1469
Vcarpet
p1470
tp1471
Vrig
p1472
s(V2008_008080
p1473
Vbag
p1474
tp1475
Vpack
p1476
s(V2008_004505
p1477
Vbag
p1478
tp1479
Vpack
p1480
s(V2008_000149
p1481
Vcarpet
p1482
tp1483
Vrug
p1484
s(V2008_008745
p1485
Vbag
p1486
tp1487
Vpack
p1488
s(V2010_003731
p1489
Vbag
p1490
tp1491
Vpack
p1492
s(V2009_002792
p1493
Vbag
p1494
tp1495
Vpack
p1496
s(V2008_002555
p1497
Vbag
p1498
tp1499
Vpack
p1500
s(V2009_000287
p1501
Vbag
p1502
tp1503
Vpack
p1504
s(V2008_006689
p1505
Vwindow
p1506
tp1507
Vwindow blinds
p1508
s(V2008_004382
p1509
Vrope
p1510
tp1511
Vwire
p1512
s(V2009_005103
p1513
Vbag
p1514
tp1515
Vpack
p1516
s(V2010_004481
p1517
Vbag
p1518
tp1519
Vpack
p1520
s(V2008_001692
p1521
Vdisc recorder
p1522
tp1523
Vequipment
p1524
s(V2008_004482
p1525
Vbag
p1526
tp1527
Vpack
p1528
s(V2008_003179
p1529
Vpad
p1530
tp1531
Vmouse pad
p1532
s(V2008_007074
p1533
Vcarpet
p1534
tp1535
Vrug
p1536
s(V2008_004318
p1537
Vbag
p1538
tp1539
Vpack
p1540
s(V2009_000928
p1541
Vcashion
p1542
tp1543
Vchair
p1544
s(V2009_003280
p1545
Vcashion
p1546
tp1547
Vtable mat
p1548
s(V2008_002205
p1549
Vchopping board
p1550
tp1551
Vbus
p1552
s(V2008_004706
p1553
Vbag
p1554
tp1555
Vpack
p1556
s(V2009_004822
p1557
Vbag
p1558
tp1559
Vpack
p1560
s(V2010_001344
p1561
Vrope
p1562
tp1563
Vwire
p1564
s(V2010_005930
p1565
Vcap
p1566
tp1567
Vhat
p1568
s(V2009_002493
p1569
Vrope
p1570
tp1571
Vfix
p1572
s(V2009_000195
p1573
Vbag
p1574
tp1575
Vpack
p1576
s(V2009_002984
p1577
Vbag
p1578
tp1579
Vpack
p1580
s(V2010_001579
p1581
Vbag
p1582
tp1583
Vpack
p1584
s(V2008_003789
p1585
Vcage
p1586
tp1587
Vbird cage
p1588
s(V2008_004487
p1589
Vcarpet
p1590
tp1591
Vrug
p1592
s(V2008_005360
p1593
Vbag
p1594
tp1595
Vpack
p1596
s(V2008_004058
p1597
Vcap
p1598
tp1599
Vhat
p1600
s(V2008_000981
p1601
Vcar
p1602
tp1603
Vsidecar
p1604
s(V2008_002960
p1605
Vbag
p1606
tp1607
Vpack
p1608
s(V2009_000091
p1609
Vcattle
p1610
tp1611
Vfix
p1612
s(V2008_002032
p1613
Vbook
p1614
tp1615
Vmenu
p1616
s(V2010_005149
p1617
Vcap
p1618
tp1619
Vhat
p1620
s(V2008_006662
p1621
Vpad
p1622
tp1623
Vfix
p1624
s(V2010_000435
p1625
Vbook
p1626
tp1627
Vfix
p1628
s(V2009_004521
p1629
Vnotebook
p1630
tp1631
Vpaper
p1632
s(V2009_000041
p1633
Vcomputer
p1634
tp1635
Vfix
p1636
s(V2008_003315
p1637
Vboat
p1638
tp1639
Vfix
p1640
s(V2010_002308
p1641
Vcarpet
p1642
tp1643
Vrug
p1644
s(V2008_004830
p1645
Vcarpet
p1646
tp1647
Vrug
p1648
s(V2009_003178
p1649
Vcarpet
p1650
tp1651
Vrug
p1652
s(V2009_002849
p1653
Vnotebook
p1654
tp1655
Vpaper
p1656
s(V2008_000970
p1657
Vbag
p1658
tp1659
Vpack
p1660
s(V2010_001408
p1661
Vbag
p1662
tp1663
Vpack
p1664
s(V2009_001962
p1665
Vbag
p1666
tp1667
Vpack
p1668
s(V2009_003731
p1669
Vcup
p1670
tp1671
Vfix
p1672
s(V2010_001402
p1673
Vchain
p1674
tp1675
Vchair
p1676
s(V2008_003006
p1677
Vpram
p1678
tp1679
Vfix
p1680
s(V2008_004222
p1681
Vpad
p1682
tp1683
Vmouse pad
p1684
s(V2008_004881
p1685
Vcarpet
p1686
tp1687
Vrug
p1688
s(V2008_005779
p1689
Vbag
p1690
tp1691
Vpack
p1692
s(V2010_005433
p1693
Vplastic
p1694
tp1695
Vcanvas
p1696
s(V2009_004359
p1697
Vpad
p1698
tp1699
Vmouse pad
p1700
s(V2008_002237
p1701
Vcarpet
p1702
tp1703
Vrug
p1704
s(V2009_005042
p1705
Vboard
p1706
tp1707
Vfix
p1708
s(V2008_002191
p1709
Vbag
p1710
tp1711
Vpack
p1712
s(V2010_005597
p1713
Vball
p1714
tp1715
Vbuoy
p1716
s(V2010_000472
p1717
Vboard
p1718
tp1719
Vironing board
p1720
s(V2009_002129
p1721
Vbag
p1722
tp1723
Vpack
p1724
s(V2009_001642
p1725
Vbag
p1726
tp1727
Vpack
p1728
s(V2008_007019
p1729
Vbag
p1730
tp1731
Vpack
p1732
s(V2009_003634
p1733
Vruler
p1734
tp1735
Vhedge
p1736
s(V2009_004301
p1737
Vpad
p1738
tp1739
Vmouse pad
p1740
s(V2008_004451
p1741
Vcarpet
p1742
tp1743
Vrug
p1744
s(V2009_001042
p1745
Vbag
p1746
tp1747
Vpack
p1748
s(V2008_007655
p1749
Vcap
p1750
tp1751
Vhat
p1752
s(V2008_008423
p1753
Vwheel
p1754
tp1755
Vfix
p1756
s(V2010_001142
p1757
Vcrutch
p1758
tp1759
Vwalking stick
p1760
s(V2008_002045
p1761
Vpad
p1762
tp1763
Vmouse pad
p1764
s(V2008_008470
p1765
Vbag
p1766
tp1767
Vpack
p1768
s(V2009_000250
p1769
Vcattle
p1770
tp1771
Vfix
p1772
s(V2009_003808
p1773
Vcattle
p1774
tp1775
Vfix
p1776
s(V2008_006065
p1777
Vbag
p1778
tp1779
Vpack
p1780
s(V2008_003680
p1781
Vdirt
p1782
tp1783
Vdirt mound
p1784
s(V2008_005808
p1785
Vbag
p1786
tp1787
Vpack
p1788
s(V2008_006095
p1789
Vcarpet
p1790
tp1791
Vrug
p1792
s(V2010_002675
p1793
Vbag
p1794
tp1795
Vpack
p1796
s(V2009_000574
p1797
Vcattle
p1798
tp1799
Vfix
p1800
s(V2008_007439
p1801
Vcarpet
p1802
tp1803
Vrug
p1804
s(V2008_002132
p1805
Vbag
p1806
tp1807
Vpack
p1808
s(V2008_004384
p1809
Vglass
p1810
tp1811
Vcup
p1812
s(V2010_004717
p1813
Vrope
p1814
tp1815
Vwire
p1816
s(V2008_000498
p1817
Vstove
p1818
tp1819
Vbbq grill
p1820
s(V2008_005056
p1821
Vcap
p1822
tp1823
Vfix
p1824
s(V2008_004597
p1825
Vclip
p1826
tp1827
Vtong
p1828
s(V2010_001645
p1829
Vbag
p1830
tp1831
Vpack
p1832
s(V2009_003959
p1833
Vcarpet
p1834
tp1835
Vrug
p1836
s(V2008_003914
p1837
Vcarpet
p1838
tp1839
Vrug
p1840
s(V2009_004340
p1841
Vbag
p1842
tp1843
Vpack
p1844
s(V2008_005342
p1845
Vbag
p1846
tp1847
Vpack
p1848
s(V2009_000150
p1849
Vcomputer
p1850
tp1851
Vlaptop
p1852
s(V2008_004331
p1853
Vbag
p1854
tp1855
Vpack
p1856
s(V2008_004534
p1857
Vboard
p1858
tp1859
Vfix
p1860
s(V2008_007503
p1861
Vcarpet
p1862
tp1863
Vrug
p1864
s(V2010_001458
p1865
Vbag
p1866
tp1867
Vpack
p1868
s(V2008_001751
p1869
Vbag
p1870
tp1871
Vpack
p1872
s(V2010_001399
p1873
Vboard
p1874
tp1875
Vsurfboard
p1876
s(V2008_003150
p1877
Vrope
p1878
tp1879
Vwire
p1880
s(V2010_000629
p1881
Vsand
p1882
tp1883
Vfix
p1884
s.