(dp0
(V2008_005781
p1
Vrope
p2
tp3
Vwire
p4
s(V2008_000145
p5
Vdisc
p6
tp7
Vcd
p8
s(V2009_002053
p9
Vcleaner
p10
tp11
Vspray bottle
p12
s(V2008_007423
p13
Vcage
p14
tp15
Vbird feeder
p16
s(V2009_003904
p17
Vcap
p18
tp19
Vhat
p20
s(V2008_007496
p21
Vcarpet
p22
tp23
Vrug
p24
s(V2009_002915
p25
Vcarpet
p26
tp27
Vrug
p28
s(V2008_001486
p29
Vglass
p30
tp31
Vcup
p32
s(V2009_002497
p33
Vcap
p34
tp35
Vhat
p36
s(V2010_006056
p37
Vbucket
p38
tp39
Vbottle
p40
s(V2009_002542
p41
Vrock
p42
tp43
Vconcrete
p44
s(V2009_000895
p45
Vpad
p46
tp47
Vmouse pad
p48
s(V2008_003808
p49
Vcap
p50
tp51
Vfix
p52
s(V2008_007081
p53
Vcarpet
p54
tp55
Vrug
p56
s(V2008_003262
p57
Vpad
p58
tp59
Vmouse pad
p60
s(V2009_000096
p61
Vbedclothes
p62
tp63
Vcushion
p64
s(V2010_000245
p65
Vchain
p66
tp67
Vfix
p68
s(V2010_001886
p69
Vcrate
p70
tp71
Vbasket
p72
s(V2009_000279
p73
Vdisc
p74
tp75
Vvinyl record
p76
s(V2008_006841
p77
Vcarpet
p78
tp79
Vrug
p80
s(V2008_004384
p81
Vglass
p82
tp83
Vcup
p84
s(V2009_005001
p85
Vcarpet
p86
tp87
Vtable mat
p88
s(V2008_008258
p89
Vwindow
p90
tp91
Vfix
p92
s(V2008_003568
p93
Vpad
p94
tp95
Vmouse pad
p96
s(V2010_005825
p97
Vclamp
p98
tp99
Vtong
p100
s(V2009_002885
p101
Vglass
p102
tp103
Vcup
p104
s(V2008_001692
p105
Vdisc
p106
tp107
Vvinyl record
p108
s(V2010_001271
p109
Vcarpet
p110
tp111
Vrug
p112
s(V2010_002796
p113
Vclamp
p114
tp115
Vtong
p116
s(V2009_001925
p117
Vclippers
p118
tp119
Vscissors
p120
s(V2010_005718
p121
Vrope
p122
tp123
Vfuel line
p124
s(V2009_002948
p125
Vcarpet
p126
tp127
Vrug
p128
s(V2010_001344
p129
Vrope
p130
tp131
Vwire
p132
s(V2008_005341
p133
Vcarriage
p134
tp135
Vfix
p136
s(V2009_002525
p137
Vcage
p138
tp139
Vbird feeder
p140
s(V2008_005651
p141
Vrope
p142
tp143
Vwire
p144
s(V2008_006606
p145
Vpad
p146
tp147
Vmouse pad
p148
s(V2008_000865
p149
Vpad
p150
tp151
Vmouse pad
p152
s(V2008_008148
p153
Vtrampoline
p154
tp155
Vfix
p156
s(V2009_004521
p157
Vnotebook
p158
tp159
Vpaper
p160
s(V2008_001907
p161
Vclip
p162
tp163
Vhair clip
p164
s(V2008_005486
p165
Vboat
p166
tp167
Vfix
p168
s(V2009_002755
p169
Vdisc
p170
tp171
Vfix
p172
s(V2009_003748
p173
Vcarpet
p174
tp175
Vrig
p176
s(V2008_006005
p177
Vrope
p178
tp179
Vtube
p180
s(V2008_000246
p181
Vclippers
p182
tp183
Vfix
p184
s(V2008_007324
p185
Vpad
p186
tp187
Vmouse pad
p188
s(V2008_001871
p189
Vcarpet
p190
tp191
Vrug
p192
s(V2008_000974
p193
Vcarpet
p194
tp195
Vfix
p196
s(V2010_005676
p197
Vcap
p198
tp199
Vhat
p200
s(V2008_000149
p201
Vcarpet
p202
tp203
Vrug
p204
s(V2009_000555
p205
Vcap
p206
tp207
Vhat
p208
s(V2008_006662
p209
Vpad
p210
tp211
Vfix
p212
s(V2008_003929
p213
Vglass
p214
tp215
Vcup
p216
s(V2009_004760
p217
Vcarpet
p218
tp219
Vrug
p220
s(V2008_003260
p221
Vsink
p222
tp223
Vbathtub
p224
s(V2008_008141
p225
Vbike
p226
tp227
Vmotorbike
p228
s(V2008_007327
p229
Vcage
p230
tp231
Vbird cage
p232
s(V2009_001414
p233
Vcap
p234
tp235
Vbottle cap
p236
s(V2009_001348
p237
Vcage
p238
tp239
Vbird cage
p240
s(V2010_003227
p241
Vbedclothes
p242
tp243
Vcushion
p244
s(V2008_003904
p245
Vbench
p246
tp247
Vcounter
p248
s(V2008_006515
p249
Vclamp
p250
tp251
Vclip
p252
s(V2010_004712
p253
Vcap
p254
tp255
Vhat
p256
s(V2008_006390
p257
Vcarriage
p258
tp259
Vfix
p260
s(V2008_006689
p261
Vwindow
p262
tp263
Vwindow blinds
p264
s(V2008_007503
p265
Vcarpet
p266
tp267
Vrug
p268
s(V2008_004382
p269
Vrope
p270
tp271
Vwire
p272
s(V2008_002376
p273
Vcarpet
p274
tp275
Vrug
p276
s(V2010_003973
p277
Vrope
p278
tp279
Vfix
p280
s(V2009_000066
p281
Vcattle
p282
tp283
Vfix
p284
s(V2009_001552
p285
Vdirt
p286
tp287
Vdirt mound
p288
s(V2008_007812
p289
Vcage
p290
tp291
Vbird feeder
p292
s(V2009_005063
p293
Vstopper
p294
tp295
Vcork
p296
s(V2008_001692
p297
Vdisc recorder
p298
tp299
Vequipment
p300
s(V2008_004844
p301
Vrock
p302
tp303
Vconcrete
p304
s(V2008_003686
p305
Vcoin machine
p306
tp307
Vvending machine
p308
s(V2008_003179
p309
Vpad
p310
tp311
Vmouse pad
p312
s(V2008_007561
p313
Vpad
p314
tp315
Vmouse pad
p316
s(V2009_003518
p317
Vchain
p318
tp319
Vbridle
p320
s(V2008_007074
p321
Vcarpet
p322
tp323
Vrug
p324
s(V2010_005952
p325
Vcoin machine
p326
tp327
Vvending machine
p328
s(V2008_006848
p329
Vboat
p330
tp331
Vfix
p332
s(V2010_003689
p333
Vsand
p334
tp335
Vfix
p336
s(V2009_000186
p337
Vpad
p338
tp339
Vmouse pad
p340
s(V2009_003634
p341
Vruler
p342
tp343
Vhedge
p344
s(V2008_000860
p345
Vcarpet
p346
tp347
Vrug
p348
s(V2009_000928
p349
Vcashion
p350
tp351
Vchair
p352
s(V2008_002952
p353
Vpad
p354
tp355
Vmouse pad
p356
s(V2008_003646
p357
Vclamp
p358
tp359
Vtong
p360
s(V2008_002205
p361
Vchopping board
p362
tp363
Vbus
p364
s(V2008_007865
p365
Vpad
p366
tp367
Vmouse pad
p368
s(V2010_001199
p369
Vadornment
p370
tp371
Vplate
p372
s(V2009_001789
p373
Vcarpet
p374
tp375
Vrug
p376
s(V2010_000629
p377
Vsand
p378
tp379
Vfix
p380
s(V2008_005783
p381
Vcap
p382
tp383
Vcork
p384
s(V2008_004382
p385
Vpad
p386
tp387
Vmouse pad
p388
s(V2009_004352
p389
Vcarpet
p390
tp391
Vrug
p392
s(V2008_002413
p393
Vrope
p394
tp395
Vfix
p396
s(V2010_002098
p397
Vcarpet
p398
tp399
Vrug
p400
s(V2008_001283
p401
Vcage
p402
tp403
Vbird cage
p404
s(V2009_002493
p405
Vrope
p406
tp407
Vfix
p408
s(V2009_000559
p409
Vcattle
p410
tp411
Vfix
p412
s(V2009_001821
p413
Vcarpet
p414
tp415
Vrug
p416
s(V2009_002457
p417
Vcart
p418
tp419
Vfix
p420
s(V2009_003924
p421
Vwindow
p422
tp423
Vfix
p424
s(V2008_007575
p425
Vpad
p426
tp427
Vmouse pad
p428
s(V2010_003623
p429
Vboat
p430
tp431
Vfix
p432
s(V2008_001815
p433
Vpad
p434
tp435
Vmouse pad
p436
s(V2008_008700
p437
Vpad
p438
tp439
Vcoaster
p440
s(V2008_001981
p441
Vsand
p442
tp443
Vfix
p444
s(V2008_003230
p445
Vrope
p446
tp447
Vwire
p448
s(V2009_002858
p449
Vcarpet
p450
tp451
Vrug
p452
s(V2010_003177
p453
Vrope
p454
tp455
Vfix
p456
s(V2010_001142
p457
Vcrutch
p458
tp459
Vwalking stick
p460
s(V2009_003214
p461
Vpad
p462
tp463
Vmouse pad
p464
s(V2008_008134
p465
Vcage
p466
tp467
Vbird cage
p468
s(V2008_001920
p469
Vcap
p470
tp471
Vbottle cap
p472
s(V2008_007615
p473
Vcup
p474
tp475
Vfix
p476
s(V2008_003789
p477
Vcage
p478
tp479
Vbird cage
p480
s(V2008_004487
p481
Vcarpet
p482
tp483
Vrug
p484
s(V2008_002284
p485
Vcamel
p486
tp487
Vfix
p488
s(V2008_006887
p489
Vcomputer
p490
tp491
Vfix
p492
s(V2008_004058
p493
Vcap
p494
tp495
Vhat
p496
s(V2008_000733
p497
Vcarpet
p498
tp499
Vrug
p500
s(V2009_001976
p501
Vnotebook
p502
tp503
Vlaptop
p504
s(V2008_000981
p505
Vcar
p506
tp507
Vsidecar
p508
s(V2009_001728
p509
Vboard
p510
tp511
Vfix
p512
s(V2009_004200
p513
Vdog chain
p514
tp515
Vdog
p516
s(V2008_003875
p517
Vstove
p518
tp519
Vfix
p520
s(V2009_000091
p521
Vcattle
p522
tp523
Vfix
p524
s(V2008_008730
p525
Vboard
p526
tp527
Vwhiteboard
p528
s(V2008_006003
p529
Vboat
p530
tp531
Vfix
p532
s(V2009_002366
p533
Vpad
p534
tp535
Vmouse pad
p536
s(V2009_001679
p537
Vbell
p538
tp539
Vcandle holders
p540
s(V2010_004679
p541
Vstick
p542
tp543
Vfix
p544
s(V2010_005149
p545
Vcap
p546
tp547
Vhat
p548
s(V2010_005847
p549
Vcarpet
p550
tp551
Vrug
p552
s(V2010_002890
p553
Vcarpet
p554
tp555
Vrug
p556
s(V2010_002713
p557
Vcage
p558
tp559
Vbird feeder
p560
s(V2010_004247
p561
Vsaddle
p562
tp563
Vfix
p564
s(V2009_004053
p565
Vglass
p566
tp567
Vfix
p568
s(V2010_002419
p569
Vwindow
p570
tp571
Vfix
p572
s(V2008_002885
p573
Vnotebook
p574
tp575
Vlaptop
p576
s(V2008_005148
p577
Vcarpet
p578
tp579
Vrug
p580
s(V2009_001105
p581
Vcup
p582
tp583
Vcandle
p584
s(V2008_005037
p585
Vrope
p586
tp587
Vwire
p588
s(V2010_001673
p589
Vcarpet
p590
tp591
Vfloor mat
p592
s(V2009_000041
p593
Vrope
p594
tp595
Vwire
p596
s(V2009_001874
p597
Vcarpet
p598
tp599
Vrug
p600
s(V2009_000041
p601
Vcomputer
p602
tp603
Vfix
p604
s(V2009_003676
p605
Vstove
p606
tp607
Vfire place
p608
s(V2008_007482
p609
Vcurtain
p610
tp611
Vwindow blinds
p612
s(V2009_002508
p613
Vboard
p614
tp615
Vfix
p616
s(V2009_002469
p617
Vcarpet
p618
tp619
Vrug
p620
s(V2010_000645
p621
Vrock
p622
tp623
Vcar stop pillar
p624
s(V2009_000150
p625
Vcomputer
p626
tp627
Vlaptop
p628
s(V2008_001216
p629
Vstapler
p630
tp631
Vfix
p632
s(V2008_006629
p633
Vcarpet
p634
tp635
Vrug
p636
s(V2010_005930
p637
Vcap
p638
tp639
Vhat
p640
s(V2010_002397
p641
Vtent
p642
tp643
Vfix
p644
s(V2008_003315
p645
Vboat
p646
tp647
Vfix
p648
s(V2009_003975
p649
Vcattle
p650
tp651
Vfix
p652
s(V2010_002308
p653
Vcarpet
p654
tp655
Vrug
p656
s(V2008_004830
p657
Vcarpet
p658
tp659
Vrug
p660
s(V2009_003178
p661
Vcarpet
p662
tp663
Vrug
p664
s(V2008_000641
p665
Vcarpet
p666
tp667
Vrug
p668
s(V2009_002849
p669
Vnotebook
p670
tp671
Vpaper
p672
s(V2010_003520
p673
Vbedclothes
p674
tp675
Vcushion
p676
s(V2008_007570
p677
Vcap
p678
tp679
Vhat
p680
s(V2008_007175
p681
Vcarpet
p682
tp683
Vrug
p684
s(V2009_003049
p685
Vmachine
p686
tp687
Vfix
p688
s(V2008_004501
p689
Vpad
p690
tp691
Vmouse pad
p692
s(V2010_000999
p693
Vcarpet
p694
tp695
Vfix
p696
s(V2010_002097
p697
Vpad
p698
tp699
Vmouse pad
p700
s(V2009_000977
p701
Vpad
p702
tp703
Vmouse pad
p704
s(V2009_002386
p705
Vcarpet
p706
tp707
Vrug
p708
s(V2010_003512
p709
Vcap
p710
tp711
Vbottle cap
p712
s(V2009_000641
p713
Vcattle
p714
tp715
Vcow
p716
s(V2009_002139
p717
Vglass
p718
tp719
Vcup
p720
s(V2008_007523
p721
Vskateboard
p722
tp723
Vscooter
p724
s(V2008_003922
p725
Vcaliduct
p726
tp727
Vradiator
p728
s(V2010_001402
p729
Vchain
p730
tp731
Vchair
p732
s(V2008_005438
p733
Vcart
p734
tp735
Vfix
p736
s(V2008_004222
p737
Vpad
p738
tp739
Vmouse pad
p740
s(V2008_004881
p741
Vcarpet
p742
tp743
Vrug
p744
s(V2009_004889
p745
Vcarpet
p746
tp747
Vfix
p748
s(V2009_000471
p749
Vcattle
p750
tp751
Vcow
p752
s(V2009_002500
p753
Vcarpet
p754
tp755
Vrug
p756
s(V2010_001189
p757
Vcarpet
p758
tp759
Vrug
p760
s(V2008_001297
p761
Vsand
p762
tp763
Vfix
p764
s(V2008_000138
p765
Vcap
p766
tp767
Vhat
p768
s(V2010_004493
p769
Vchain
p770
tp771
Vfix
p772
s(V2009_004515
p773
Vstopper
p774
tp775
Vcork
p776
s(V2008_002237
p777
Vcarpet
p778
tp779
Vrug
p780
s(V2008_001544
p781
Vrope
p782
tp783
Vfix
p784
s(V2009_005042
p785
Vboard
p786
tp787
Vfix
p788
s(V2008_003344
p789
Vsand
p790
tp791
Vfix
p792
s(V2010_002336
p793
Vcarpet
p794
tp795
Vrug
p796
s(V2010_000472
p797
Vboard
p798
tp799
Vironing board
p800
s(V2009_000852
p801
Vboat
p802
tp803
Vmountain
p804
s(V2010_000589
p805
Vsand
p806
tp807
Vfix
p808
s(V2009_002224
p809
Vboard
p810
tp811
Vfence
p812
s(V2010_003544
p813
Vboat
p814
tp815
Vfix
p816
s(V2010_005308
p817
Vcarpet
p818
tp819
Vrug
p820
s(V2009_001069
p821
Vcomputer
p822
tp823
Vfix
p824
s(V2009_004519
p825
Vnotebook
p826
tp827
Vpaper
p828
s(V2010_006073
p829
Vcarpet
p830
tp831
Vrug
p832
s(V2008_003912
p833
Vboat
p834
tp835
Vfix
p836
s(V2010_004741
p837
Vcarpet
p838
tp839
Vrug
p840
s(V2009_004301
p841
Vpad
p842
tp843
Vmouse pad
p844
s(V2010_005008
p845
Vcarpet
p846
tp847
Vrug
p848
s(V2008_004451
p849
Vcarpet
p850
tp851
Vrug
p852
s(V2008_006299
p853
Vnotebook
p854
tp855
Vpaper
p856
s(V2008_005014
p857
Vcarpet
p858
tp859
Vrug
p860
s(V2008_002544
p861
Vrope
p862
tp863
Vwire
p864
s(V2009_002134
p865
Vrope
p866
tp867
Vfix
p868
s(V2009_001540
p869
Vboard
p870
tp871
Vfence
p872
s(V2008_007655
p873
Vcap
p874
tp875
Vhat
p876
s(V2008_003253
p877
Vrope
p878
tp879
Vfix
p880
s(V2009_003731
p881
Vcup
p882
tp883
Vfix
p884
s(V2008_008423
p885
Vwheel
p886
tp887
Vfix
p888
s(V2008_006081
p889
Vboard
p890
tp891
Vdart board
p892
s(V2008_002045
p893
Vpad
p894
tp895
Vmouse pad
p896
s(V2009_003632
p897
Vcarpet
p898
tp899
Vrug
p900
s(V2009_003002
p901
Vcage
p902
tp903
Vbird cage
p904
s(V2009_000250
p905
Vcattle
p906
tp907
Vfix
p908
s(V2008_006676
p909
Vcarpet
p910
tp911
Vrug
p912
s(V2010_004816
p913
Vdisc
p914
tp915
Vcd
p916
s(V2009_004243
p917
Vcarpet
p918
tp919
Vfloor mat
p920
s(V2010_005180
p921
Vcarpet
p922
tp923
Vrug
p924
s(V2009_003280
p925
Vcashion
p926
tp927
Vtable mat
p928
s(V2008_007334
p929
Vrope
p930
tp931
Vfix
p932
s(V2008_007921
p933
Vcap
p934
tp935
Vhat
p936
s(V2008_005056
p937
Vcap
p938
tp939
Vfix
p940
s(V2009_003808
p941
Vcattle
p942
tp943
Vfix
p944
s(V2008_003680
p945
Vdirt
p946
tp947
Vdirt mound
p948
s(V2008_007218
p949
Vpad
p950
tp951
Vrug
p952
s(V2009_002612
p953
Vcurtain
p954
tp955
Vwindow blinds
p956
s(V2008_006095
p957
Vcarpet
p958
tp959
Vrug
p960
s(V2008_006233
p961
Vrope
p962
tp963
Vwire
p964
s(V2010_006011
p965
Vcomputer
p966
tp967
Vtvmonitor
p968
s(V2009_000574
p969
Vcattle
p970
tp971
Vfix
p972
s(V2008_000472
p973
Vcage
p974
tp975
Vbird cage
p976
s(V2008_007439
p977
Vcarpet
p978
tp979
Vrug
p980
s(V2010_001340
p981
Vcarpet
p982
tp983
Vfloor mat
p984
s(V2008_001768
p985
Vnotebook
p986
tp987
Vfix
p988
s(V2008_008528
p989
Vblade carrier
p990
tp991
Vbicycle
p992
s(V2008_002377
p993
Vcap
p994
tp995
Vhat
p996
s(V2008_004329
p997
Vboard
p998
tp999
Vwhite board
p1000
s(V2010_004717
p1001
Vrope
p1002
tp1003
Vwire
p1004
s(V2008_000498
p1005
Vstove
p1006
tp1007
Vbbq grill
p1008
s(V2008_004492
p1009
Vchessboard
p1010
tp1011
Vfix
p1012
s(V2008_004597
p1013
Vclip
p1014
tp1015
Vtong
p1016
s(V2009_000697
p1017
Vnotebook
p1018
tp1019
Vpap
p1020
s(V2009_003959
p1021
Vcarpet
p1022
tp1023
Vrug
p1024
s(V2009_003850
p1025
Vcarpet
p1026
tp1027
Vrug
p1028
s(V2009_001392
p1029
Vcarpet
p1030
tp1031
Vrug
p1032
s(V2009_003759
p1033
Vcarpet
p1034
tp1035
Vrig
p1036
s(V2009_003625
p1037
Vrope
p1038
tp1039
Vfix
p1040
s(V2010_000408
p1041
Vcarpet
p1042
tp1043
Vrug
p1044
s(V2008_003834
p1045
Vsink
p1046
tp1047
Vbathtub
p1048
s(V2010_002527
p1049
Vcarpet
p1050
tp1051
Vrug
p1052
s(V2008_003914
p1053
Vcarpet
p1054
tp1055
Vrug
p1056
s(V2010_002637
p1057
Vboat
p1058
tp1059
Vfix
p1060
s(V2009_003349
p1061
Vglass
p1062
tp1063
Vcup
p1064
s(V2008_005008
p1065
Vrope
p1066
tp1067
Vwire
p1068
s(V2008_007755
p1069
Vboat
p1070
tp1071
Vfix
p1072
s(V2010_003197
p1073
Vcarpet
p1074
tp1075
Vfix
p1076
s(V2010_005992
p1077
Vcarpet
p1078
tp1079
Vrug
p1080
s(V2008_001004
p1081
Vboard
p1082
tp1083
Vcork board
p1084
s(V2010_003204
p1085
Vcarpet
p1086
tp1087
Vrug
p1088
s(V2008_004534
p1089
Vboard
p1090
tp1091
Vfix
p1092
s(V2009_004359
p1093
Vpad
p1094
tp1095
Vmouse pad
p1096
s(V2008_007922
p1097
Vcarpet
p1098
tp1099
Vrug
p1100
s(V2010_000405
p1101
Vpad
p1102
tp1103
Vmouse pad
p1104
s(V2010_001399
p1105
Vboard
p1106
tp1107
Vsurfboard
p1108
s(V2008_003150
p1109
Vrope
p1110
tp1111
Vwire
p1112
s(V2008_001079
p1113
Vcarpet
p1114
tp1115
Vrug
p1116
s(V2009_003956
p1117
Vcattle
p1118
tp1119
Vfix
p1120
s(V2008_000045
p1121
Vbulb
p1122
tp1123
Vceiling
p1124
s(V2009_000819
p1125
Vcarpet
p1126
tp1127
Vrug
p1128
s(V2008_004836
p1129
Vcarpet
p1130
tp1131
Vrug
p1132
s(V2009_004800
p1133
Vpad
p1134
tp1135
Vmouse pad
p1136
s(V2009_000944
p1137
Vnotebook
p1138
tp1139
Vunknown
p1140
s(V2009_001573
p1141
Vrope
p1142
tp1143
Vfix
p1144
s.