(dp0
(V2008_005781
p1
Vrope
p2
tp3
Vwire
p4
s(V2010_004247
p5
Vsaddle
p6
tp7
Vfix
p8
s(V2009_002053
p9
Vcleaner
p10
tp11
Vspray bottle
p12
s(V2008_007423
p13
Vcage
p14
tp15
Vbird feeder
p16
s(V2008_004836
p17
Vcarpet
p18
tp19
Vrug
p20
s(V2008_007496
p21
Vcarpet
p22
tp23
Vrug
p24
s(V2009_002915
p25
Vcarpet
p26
tp27
Vrug
p28
s(V2008_001486
p29
Vglass
p30
tp31
Vcup
p32
s(V2010_006056
p33
Vbucket
p34
tp35
Vbottle
p36
s(V2009_002542
p37
Vrock
p38
tp39
Vconcrete
p40
s(V2009_000895
p41
Vpad
p42
tp43
Vmouse pad
p44
s(V2008_003344
p45
Vsand
p46
tp47
Vfix
p48
s(V2008_007081
p49
Vcarpet
p50
tp51
Vrug
p52
s(V2008_003262
p53
Vpad
p54
tp55
Vmouse pad
p56
s(V2009_000096
p57
Vbedclothes
p58
tp59
Vcushion
p60
s(V2010_000245
p61
Vchain
p62
tp63
Vfix
p64
s(V2010_001886
p65
Vcrate
p66
tp67
Vbasket
p68
s(V2009_000279
p69
Vdisc
p70
tp71
Vvinyl record
p72
s(V2008_006841
p73
Vcarpet
p74
tp75
Vrug
p76
s(V2010_002397
p77
Vtent
p78
tp79
Vfix
p80
s(V2010_001340
p81
Vcarpet
p82
tp83
Vfloor mat
p84
s(V2009_005001
p85
Vcarpet
p86
tp87
Vtable mat
p88
s(V2008_008258
p89
Vwindow
p90
tp91
Vfix
p92
s(V2008_003568
p93
Vpad
p94
tp95
Vmouse pad
p96
s(V2010_005825
p97
Vclamp
p98
tp99
Vtong
p100
s(V2009_002885
p101
Vglass
p102
tp103
Vcup
p104
s(V2008_002237
p105
Vcarpet
p106
tp107
Vrug
p108
s(V2008_001692
p109
Vdisc
p110
tp111
Vvinyl record
p112
s(V2010_001271
p113
Vcarpet
p114
tp115
Vrug
p116
s(V2010_002796
p117
Vclamp
p118
tp119
Vtong
p120
s(V2009_001925
p121
Vclippers
p122
tp123
Vscissors
p124
s(V2010_005718
p125
Vrope
p126
tp127
Vfuel line
p128
s(V2009_002948
p129
Vcarpet
p130
tp131
Vrug
p132
s(V2008_004382
p133
Vpad
p134
tp135
Vmouse pad
p136
s(V2008_005341
p137
Vcarriage
p138
tp139
Vfix
p140
s(V2010_001673
p141
Vcarpet
p142
tp143
Vfloor mat
p144
s(V2008_005651
p145
Vrope
p146
tp147
Vwire
p148
s(V2008_006606
p149
Vpad
p150
tp151
Vmouse pad
p152
s(V2008_000865
p153
Vpad
p154
tp155
Vmouse pad
p156
s(V2008_008148
p157
Vtrampoline
p158
tp159
Vfix
p160
s(V2009_001874
p161
Vcarpet
p162
tp163
Vrug
p164
s(V2008_005486
p165
Vboat
p166
tp167
Vfix
p168
s(V2009_002755
p169
Vdisc
p170
tp171
Vfix
p172
s(V2009_003748
p173
Vcarpet
p174
tp175
Vrig
p176
s(V2008_006005
p177
Vrope
p178
tp179
Vtube
p180
s(V2008_000246
p181
Vclippers
p182
tp183
Vfix
p184
s(V2008_007324
p185
Vpad
p186
tp187
Vmouse pad
p188
s(V2008_001871
p189
Vcarpet
p190
tp191
Vrug
p192
s(V2008_000974
p193
Vcarpet
p194
tp195
Vfix
p196
s(V2009_003924
p197
Vwindow
p198
tp199
Vfix
p200
s(V2010_005676
p201
Vcap
p202
tp203
Vhat
p204
s(V2008_000149
p205
Vcarpet
p206
tp207
Vrug
p208
s(V2009_003676
p209
Vstove
p210
tp211
Vfire place
p212
s(V2010_004679
p213
Vstick
p214
tp215
Vfix
p216
s(V2008_003929
p217
Vglass
p218
tp219
Vcup
p220
s(V2009_004760
p221
Vcarpet
p222
tp223
Vrug
p224
s(V2008_003260
p225
Vsink
p226
tp227
Vbathtub
p228
s(V2008_008141
p229
Vbike
p230
tp231
Vmotorbike
p232
s(V2008_007327
p233
Vcage
p234
tp235
Vbird cage
p236
s(V2009_001414
p237
Vcap
p238
tp239
Vbottle cap
p240
s(V2009_001348
p241
Vcage
p242
tp243
Vbird cage
p244
s(V2010_003227
p245
Vbedclothes
p246
tp247
Vcushion
p248
s(V2008_003904
p249
Vbench
p250
tp251
Vcounter
p252
s(V2008_006515
p253
Vclamp
p254
tp255
Vclip
p256
s(V2008_006390
p257
Vcarriage
p258
tp259
Vfix
p260
s(V2008_006689
p261
Vwindow
p262
tp263
Vwindow blinds
p264
s(V2008_004382
p265
Vrope
p266
tp267
Vwire
p268
s(V2010_003973
p269
Vrope
p270
tp271
Vfix
p272
s(V2009_000066
p273
Vcattle
p274
tp275
Vfix
p276
s(V2009_001552
p277
Vdirt
p278
tp279
Vdirt mound
p280
s(V2008_007812
p281
Vcage
p282
tp283
Vbird feeder
p284
s(V2009_005063
p285
Vstopper
p286
tp287
Vcork
p288
s(V2008_001692
p289
Vdisc recorder
p290
tp291
Vequipment
p292
s(V2008_004844
p293
Vrock
p294
tp295
Vconcrete
p296
s(V2009_004519
p297
Vnotebook
p298
tp299
Vpaper
p300
s(V2008_003179
p301
Vpad
p302
tp303
Vmouse pad
p304
s(V2008_007561
p305
Vpad
p306
tp307
Vmouse pad
p308
s(V2009_003518
p309
Vchain
p310
tp311
Vbridle
p312
s(V2008_007074
p313
Vcarpet
p314
tp315
Vrug
p316
s(V2009_001821
p317
Vcarpet
p318
tp319
Vrug
p320
s(V2008_006848
p321
Vboat
p322
tp323
Vfix
p324
s(V2010_003689
p325
Vsand
p326
tp327
Vfix
p328
s(V2009_000186
p329
Vpad
p330
tp331
Vmouse pad
p332
s(V2010_004741
p333
Vcarpet
p334
tp335
Vrug
p336
s(V2008_000860
p337
Vcarpet
p338
tp339
Vrug
p340
s(V2009_000928
p341
Vcashion
p342
tp343
Vchair
p344
s(V2008_006081
p345
Vboard
p346
tp347
Vdart board
p348
s(V2008_002952
p349
Vpad
p350
tp351
Vmouse pad
p352
s(V2008_001004
p353
Vboard
p354
tp355
Vcork board
p356
s(V2008_003646
p357
Vclamp
p358
tp359
Vtong
p360
s(V2008_002205
p361
Vchopping board
p362
tp363
Vbus
p364
s(V2008_007865
p365
Vpad
p366
tp367
Vmouse pad
p368
s(V2008_004451
p369
Vcarpet
p370
tp371
Vrug
p372
s(V2009_001789
p373
Vcarpet
p374
tp375
Vrug
p376
s(V2010_005930
p377
Vcap
p378
tp379
Vhat
p380
s(V2008_005783
p381
Vcap
p382
tp383
Vcork
p384
s(V2010_001344
p385
Vrope
p386
tp387
Vwire
p388
s(V2009_004352
p389
Vcarpet
p390
tp391
Vrug
p392
s(V2008_002413
p393
Vrope
p394
tp395
Vfix
p396
s(V2010_002098
p397
Vcarpet
p398
tp399
Vrug
p400
s(V2008_001283
p401
Vcage
p402
tp403
Vbird cage
p404
s(V2009_002493
p405
Vrope
p406
tp407
Vfix
p408
s(V2009_000559
p409
Vcattle
p410
tp411
Vfix
p412
s(V2010_005952
p413
Vcoin machine
p414
tp415
Vvending machine
p416
s(V2009_002457
p417
Vcart
p418
tp419
Vfix
p420
s(V2010_001199
p421
Vadornment
p422
tp423
Vplate
p424
s(V2008_007575
p425
Vpad
p426
tp427
Vmouse pad
p428
s(V2008_001815
p429
Vpad
p430
tp431
Vmouse pad
p432
s(V2010_003623
p433
Vboat
p434
tp435
Vfix
p436
s(V2008_008700
p437
Vpad
p438
tp439
Vcoaster
p440
s(V2008_001981
p441
Vsand
p442
tp443
Vfix
p444
s(V2008_003230
p445
Vrope
p446
tp447
Vwire
p448
s(V2009_002858
p449
Vcarpet
p450
tp451
Vrug
p452
s(V2010_003177
p453
Vrope
p454
tp455
Vfix
p456
s(V2009_003214
p457
Vpad
p458
tp459
Vmouse pad
p460
s(V2008_001920
p461
Vcap
p462
tp463
Vbottle cap
p464
s(V2008_007615
p465
Vcup
p466
tp467
Vfix
p468
s(V2008_003789
p469
Vcage
p470
tp471
Vbird cage
p472
s(V2008_004487
p473
Vcarpet
p474
tp475
Vrug
p476
s(V2008_002284
p477
Vcamel
p478
tp479
Vfix
p480
s(V2008_006887
p481
Vcomputer
p482
tp483
Vfix
p484
s(V2008_004058
p485
Vcap
p486
tp487
Vhat
p488
s(V2008_000733
p489
Vcarpet
p490
tp491
Vrug
p492
s(V2009_001976
p493
Vnotebook
p494
tp495
Vlaptop
p496
s(V2008_000981
p497
Vcar
p498
tp499
Vsidecar
p500
s(V2009_001728
p501
Vboard
p502
tp503
Vfix
p504
s(V2009_004200
p505
Vdog chain
p506
tp507
Vdog
p508
s(V2008_003875
p509
Vstove
p510
tp511
Vfix
p512
s(V2009_000091
p513
Vcattle
p514
tp515
Vfix
p516
s(V2008_008730
p517
Vboard
p518
tp519
Vwhiteboard
p520
s(V2008_008423
p521
Vwheel
p522
tp523
Vfix
p524
s(V2009_002366
p525
Vpad
p526
tp527
Vmouse pad
p528
s(V2009_000697
p529
Vnotebook
p530
tp531
Vpap
p532
s(V2010_005149
p533
Vcap
p534
tp535
Vhat
p536
s(V2008_004830
p537
Vcarpet
p538
tp539
Vrug
p540
s(V2010_002890
p541
Vcarpet
p542
tp543
Vrug
p544
s(V2010_002713
p545
Vcage
p546
tp547
Vbird feeder
p548
s(V2008_000145
p549
Vdisc
p550
tp551
Vcd
p552
s(V2009_004053
p553
Vglass
p554
tp555
Vfix
p556
s(V2010_002419
p557
Vwindow
p558
tp559
Vfix
p560
s(V2008_002885
p561
Vnotebook
p562
tp563
Vlaptop
p564
s(V2009_002612
p565
Vcurtain
p566
tp567
Vwindow blinds
p568
s(V2008_005148
p569
Vcarpet
p570
tp571
Vrug
p572
s(V2009_001105
p573
Vcup
p574
tp575
Vcandle
p576
s(V2009_002849
p577
Vnotebook
p578
tp579
Vpaper
p580
s(V2009_002525
p581
Vcage
p582
tp583
Vbird feeder
p584
s(V2008_007755
p585
Vboat
p586
tp587
Vfix
p588
s(V2009_004521
p589
Vnotebook
p590
tp591
Vpaper
p592
s(V2009_000041
p593
Vcomputer
p594
tp595
Vfix
p596
s(V2009_000555
p597
Vcap
p598
tp599
Vhat
p600
s(V2008_007482
p601
Vcurtain
p602
tp603
Vwindow blinds
p604
s(V2008_004492
p605
Vchessboard
p606
tp607
Vfix
p608
s(V2009_001540
p609
Vboard
p610
tp611
Vfence
p612
s(V2009_002469
p613
Vcarpet
p614
tp615
Vrug
p616
s(V2010_000645
p617
Vrock
p618
tp619
Vcar stop pillar
p620
s(V2010_003197
p621
Vcarpet
p622
tp623
Vfix
p624
s(V2008_001216
p625
Vstapler
p626
tp627
Vfix
p628
s(V2008_006003
p629
Vboat
p630
tp631
Vfix
p632
s(V2009_000641
p633
Vcattle
p634
tp635
Vcow
p636
s(V2008_003315
p637
Vboat
p638
tp639
Vfix
p640
s(V2008_007175
p641
Vcarpet
p642
tp643
Vrug
p644
s(V2009_003975
p645
Vcattle
p646
tp647
Vfix
p648
s(V2010_002308
p649
Vcarpet
p650
tp651
Vrug
p652
s(V2010_005847
p653
Vcarpet
p654
tp655
Vrug
p656
s(V2009_003178
p657
Vcarpet
p658
tp659
Vrug
p660
s(V2008_000641
p661
Vcarpet
p662
tp663
Vrug
p664
s(V2008_005037
p665
Vrope
p666
tp667
Vwire
p668
s(V2010_003520
p669
Vbedclothes
p670
tp671
Vcushion
p672
s(V2008_007570
p673
Vcap
p674
tp675
Vhat
p676
s(V2009_002497
p677
Vcap
p678
tp679
Vhat
p680
s(V2009_003049
p681
Vmachine
p682
tp683
Vfix
p684
s(V2008_004501
p685
Vpad
p686
tp687
Vmouse pad
p688
s(V2010_003204
p689
Vcarpet
p690
tp691
Vrug
p692
s(V2010_002097
p693
Vpad
p694
tp695
Vmouse pad
p696
s(V2009_000977
p697
Vpad
p698
tp699
Vmouse pad
p700
s(V2009_002386
p701
Vcarpet
p702
tp703
Vrug
p704
s(V2008_001079
p705
Vcarpet
p706
tp707
Vrug
p708
s(V2010_003512
p709
Vcap
p710
tp711
Vbottle cap
p712
s(V2008_006299
p713
Vnotebook
p714
tp715
Vpaper
p716
s(V2008_007523
p717
Vskateboard
p718
tp719
Vscooter
p720
s(V2008_003922
p721
Vcaliduct
p722
tp723
Vradiator
p724
s(V2010_001402
p725
Vchain
p726
tp727
Vchair
p728
s(V2008_005438
p729
Vcart
p730
tp731
Vfix
p732
s(V2008_004222
p733
Vpad
p734
tp735
Vmouse pad
p736
s(V2008_004881
p737
Vcarpet
p738
tp739
Vrug
p740
s(V2009_004889
p741
Vcarpet
p742
tp743
Vfix
p744
s(V2009_000471
p745
Vcattle
p746
tp747
Vcow
p748
s(V2009_002500
p749
Vcarpet
p750
tp751
Vrug
p752
s(V2008_004534
p753
Vboard
p754
tp755
Vfix
p756
s(V2008_001297
p757
Vsand
p758
tp759
Vfix
p760
s(V2008_000138
p761
Vcap
p762
tp763
Vhat
p764
s(V2010_004493
p765
Vchain
p766
tp767
Vfix
p768
s(V2009_004515
p769
Vstopper
p770
tp771
Vcork
p772
s(V2008_003914
p773
Vcarpet
p774
tp775
Vrug
p776
s(V2009_001679
p777
Vbell
p778
tp779
Vcandle holders
p780
s(V2008_001544
p781
Vrope
p782
tp783
Vfix
p784
s(V2009_005042
p785
Vboard
p786
tp787
Vfix
p788
s(V2008_003808
p789
Vcap
p790
tp791
Vfix
p792
s(V2010_000472
p793
Vboard
p794
tp795
Vironing board
p796
s(V2009_000852
p797
Vboat
p798
tp799
Vmountain
p800
s(V2010_000589
p801
Vsand
p802
tp803
Vfix
p804
s(V2009_002224
p805
Vboard
p806
tp807
Vfence
p808
s(V2010_003544
p809
Vboat
p810
tp811
Vfix
p812
s(V2010_005308
p813
Vcarpet
p814
tp815
Vrug
p816
s(V2009_001069
p817
Vcomputer
p818
tp819
Vfix
p820
s(V2008_003686
p821
Vcoin machine
p822
tp823
Vvending machine
p824
s(V2010_006073
p825
Vcarpet
p826
tp827
Vrug
p828
s(V2008_003912
p829
Vboat
p830
tp831
Vfix
p832
s(V2009_003634
p833
Vruler
p834
tp835
Vhedge
p836
s(V2009_004301
p837
Vpad
p838
tp839
Vmouse pad
p840
s(V2008_007922
p841
Vcarpet
p842
tp843
Vrug
p844
s(V2009_002139
p845
Vglass
p846
tp847
Vcup
p848
s(V2008_000472
p849
Vcage
p850
tp851
Vbird cage
p852
s(V2009_001392
p853
Vcarpet
p854
tp855
Vrug
p856
s(V2008_005014
p857
Vcarpet
p858
tp859
Vrug
p860
s(V2008_002544
p861
Vrope
p862
tp863
Vwire
p864
s(V2009_002508
p865
Vboard
p866
tp867
Vfix
p868
s(V2009_003904
p869
Vcap
p870
tp871
Vhat
p872
s(V2008_007655
p873
Vcap
p874
tp875
Vhat
p876
s(V2008_003253
p877
Vrope
p878
tp879
Vfix
p880
s(V2009_003731
p881
Vcup
p882
tp883
Vfix
p884
s(V2009_002134
p885
Vrope
p886
tp887
Vfix
p888
s(V2010_001142
p889
Vcrutch
p890
tp891
Vwalking stick
p892
s(V2010_001399
p893
Vboard
p894
tp895
Vsurfboard
p896
s(V2008_002045
p897
Vpad
p898
tp899
Vmouse pad
p900
s(V2009_003632
p901
Vcarpet
p902
tp903
Vrug
p904
s(V2009_003002
p905
Vcage
p906
tp907
Vbird cage
p908
s(V2009_000250
p909
Vcattle
p910
tp911
Vfix
p912
s(V2008_006676
p913
Vcarpet
p914
tp915
Vrug
p916
s(V2009_004243
p917
Vcarpet
p918
tp919
Vfloor mat
p920
s(V2010_005180
p921
Vcarpet
p922
tp923
Vrug
p924
s(V2009_003280
p925
Vcashion
p926
tp927
Vtable mat
p928
s(V2008_007334
p929
Vrope
p930
tp931
Vfix
p932
s(V2008_007921
p933
Vcap
p934
tp935
Vhat
p936
s(V2009_003808
p937
Vcattle
p938
tp939
Vfix
p940
s(V2008_003680
p941
Vdirt
p942
tp943
Vdirt mound
p944
s(V2008_007218
p945
Vpad
p946
tp947
Vrug
p948
s(V2008_006629
p949
Vcarpet
p950
tp951
Vrug
p952
s(V2008_006095
p953
Vcarpet
p954
tp955
Vrug
p956
s(V2008_006233
p957
Vrope
p958
tp959
Vwire
p960
s(V2010_006011
p961
Vcomputer
p962
tp963
Vtvmonitor
p964
s(V2009_000574
p965
Vcattle
p966
tp967
Vfix
p968
s(V2009_000944
p969
Vnotebook
p970
tp971
Vunknown
p972
s(V2008_007439
p973
Vcarpet
p974
tp975
Vrug
p976
s(V2009_003625
p977
Vrope
p978
tp979
Vfix
p980
s(V2008_004384
p981
Vglass
p982
tp983
Vcup
p984
s(V2008_001768
p985
Vnotebook
p986
tp987
Vfix
p988
s(V2008_008528
p989
Vblade carrier
p990
tp991
Vbicycle
p992
s(V2008_002377
p993
Vcap
p994
tp995
Vhat
p996
s(V2008_004329
p997
Vboard
p998
tp999
Vwhite board
p1000
s(V2010_004717
p1001
Vrope
p1002
tp1003
Vwire
p1004
s(V2008_000498
p1005
Vstove
p1006
tp1007
Vbbq grill
p1008
s(V2008_005056
p1009
Vcap
p1010
tp1011
Vfix
p1012
s(V2008_004597
p1013
Vclip
p1014
tp1015
Vtong
p1016
s(V2010_004712
p1017
Vcap
p1018
tp1019
Vhat
p1020
s(V2009_003959
p1021
Vcarpet
p1022
tp1023
Vrug
p1024
s(V2009_003850
p1025
Vcarpet
p1026
tp1027
Vrug
p1028
s(V2008_001907
p1029
Vclip
p1030
tp1031
Vhair clip
p1032
s(V2009_003759
p1033
Vcarpet
p1034
tp1035
Vrig
p1036
s(V2010_005008
p1037
Vcarpet
p1038
tp1039
Vrug
p1040
s(V2010_000408
p1041
Vcarpet
p1042
tp1043
Vrug
p1044
s(V2008_003834
p1045
Vsink
p1046
tp1047
Vbathtub
p1048
s(V2010_002527
p1049
Vcarpet
p1050
tp1051
Vrug
p1052
s(V2010_002336
p1053
Vcarpet
p1054
tp1055
Vrug
p1056
s(V2010_002637
p1057
Vboat
p1058
tp1059
Vfix
p1060
s(V2009_003349
p1061
Vglass
p1062
tp1063
Vcup
p1064
s(V2008_005008
p1065
Vrope
p1066
tp1067
Vwire
p1068
s(V2009_000041
p1069
Vrope
p1070
tp1071
Vwire
p1072
s(V2009_000150
p1073
Vcomputer
p1074
tp1075
Vlaptop
p1076
s(V2010_005992
p1077
Vcarpet
p1078
tp1079
Vrug
p1080
s(V2009_000819
p1081
Vcarpet
p1082
tp1083
Vrug
p1084
s(V2010_000999
p1085
Vcarpet
p1086
tp1087
Vfix
p1088
s(V2010_001189
p1089
Vcarpet
p1090
tp1091
Vrug
p1092
s(V2009_004359
p1093
Vpad
p1094
tp1095
Vmouse pad
p1096
s(V2010_004816
p1097
Vdisc
p1098
tp1099
Vcd
p1100
s(V2010_000405
p1101
Vpad
p1102
tp1103
Vmouse pad
p1104
s(V2008_008134
p1105
Vcage
p1106
tp1107
Vbird cage
p1108
s(V2008_003150
p1109
Vrope
p1110
tp1111
Vwire
p1112
s(V2008_006662
p1113
Vpad
p1114
tp1115
Vfix
p1116
s(V2009_003956
p1117
Vcattle
p1118
tp1119
Vfix
p1120
s(V2008_000045
p1121
Vbulb
p1122
tp1123
Vceiling
p1124
s(V2008_002376
p1125
Vcarpet
p1126
tp1127
Vrug
p1128
s(V2010_000629
p1129
Vsand
p1130
tp1131
Vfix
p1132
s(V2009_004800
p1133
Vpad
p1134
tp1135
Vmouse pad
p1136
s(V2008_007503
p1137
Vcarpet
p1138
tp1139
Vrug
p1140
s(V2009_001573
p1141
Vrope
p1142
tp1143
Vfix
p1144
s.