(dp0
(V2009_004053
p1
Vglass
p2
tp3
Vfix
p4
s(V2008_007812
p5
Vcage
p6
tp7
Vbird feeder
p8
s(V2008_002377
p9
Vcap
p10
tp11
Vhat
p12
s(V2009_002525
p13
Vcage
p14
tp15
Vbird feeder
p16
s(V2008_001486
p17
Vglass
p18
tp19
Vcup
p20
s(V2010_006056
p21
Vbucket
p22
tp23
Vbottle
p24
s(V2009_000555
p25
Vcap
p26
tp27
Vhat
p28
s(V2009_003002
p29
Vcage
p30
tp31
Vbird cage
p32
s(V2008_006848
p33
Vboat
p34
tp35
Vfix
p36
s(V2008_007655
p37
Vcap
p38
tp39
Vhat
p40
s(V2008_007921
p41
Vcap
p42
tp43
Vhat
p44
s(V2008_006003
p45
Vboat
p46
tp47
Vfix
p48
s(V2008_007423
p49
Vcage
p50
tp51
Vbird feeder
p52
s(V2008_003315
p53
Vboat
p54
tp55
Vfix
p56
s(V2008_004384
p57
Vglass
p58
tp59
Vcup
p60
s(V2008_000472
p61
Vcage
p62
tp63
Vbird cage
p64
s(V2010_003520
p65
Vbedclothes
p66
tp67
Vcushion
p68
s(V2009_002885
p69
Vglass
p70
tp71
Vcup
p72
s(V2009_002497
p73
Vcap
p74
tp75
Vhat
p76
s(V2008_008528
p77
Vblade carrier
p78
tp79
Vbicycle
p80
s(V2010_005930
p81
Vcap
p82
tp83
Vhat
p84
s(V2010_003512
p85
Vcap
p86
tp87
Vbottle cap
p88
s(V2008_001283
p89
Vcage
p90
tp91
Vbird cage
p92
s(V2009_002139
p93
Vglass
p94
tp95
Vcup
p96
s(V2008_003922
p97
Vcaliduct
p98
tp99
Vradiator
p100
s(V2010_001199
p101
Vadornment
p102
tp103
Vplate
p104
s(V2008_005056
p105
Vcap
p106
tp107
Vfix
p108
s(V2010_003623
p109
Vboat
p110
tp111
Vfix
p112
s(V2009_003349
p113
Vglass
p114
tp115
Vcup
p116
s(V2008_000138
p117
Vcap
p118
tp119
Vhat
p120
s(V2008_005486
p121
Vboat
p122
tp123
Vfix
p124
s(V2009_001414
p125
Vcap
p126
tp127
Vbottle cap
p128
s(V2010_002637
p129
Vboat
p130
tp131
Vfix
p132
s(V2008_007755
p133
Vboat
p134
tp135
Vfix
p136
s(V2008_003808
p137
Vcap
p138
tp139
Vfix
p140
s(V2008_001920
p141
Vcap
p142
tp143
Vbottle cap
p144
s(V2008_007570
p145
Vcap
p146
tp147
Vhat
p148
s(V2008_003789
p149
Vcage
p150
tp151
Vbird cage
p152
s(V2010_005676
p153
Vcap
p154
tp155
Vhat
p156
s(V2009_000852
p157
Vboat
p158
tp159
Vmountain
p160
s(V2008_004058
p161
Vcap
p162
tp163
Vhat
p164
s(V2008_005783
p165
Vcap
p166
tp167
Vcork
p168
s(V2010_003544
p169
Vboat
p170
tp171
Vfix
p172
s(V2008_003929
p173
Vglass
p174
tp175
Vcup
p176
s(V2008_000981
p177
Vcar
p178
tp179
Vsidecar
p180
s(V2008_008141
p181
Vbike
p182
tp183
Vmotorbike
p184
s(V2008_008134
p185
Vcage
p186
tp187
Vbird cage
p188
s(V2008_003912
p189
Vboat
p190
tp191
Vfix
p192
s(V2010_002713
p193
Vcage
p194
tp195
Vbird feeder
p196
s(V2008_007327
p197
Vcage
p198
tp199
Vbird cage
p200
s(V2009_003904
p201
Vcap
p202
tp203
Vhat
p204
s(V2010_005149
p205
Vcap
p206
tp207
Vhat
p208
s(V2008_000045
p209
Vbulb
p210
tp211
Vceiling
p212
s(V2008_003904
p213
Vbench
p214
tp215
Vcounter
p216
s(V2010_004712
p217
Vcap
p218
tp219
Vhat
p220
s(V2009_001348
p221
Vcage
p222
tp223
Vbird cage
p224
s.