(dp0
(V2008_007812
p1
Vcage
p2
tp3
Vbird feeder
p4
s(V2008_002377
p5
Vcap
p6
tp7
Vhat
p8
s(V2009_002525
p9
Vcage
p10
tp11
Vbird feeder
p12
s(V2010_006056
p13
Vbucket
p14
tp15
Vbottle
p16
s(V2009_003002
p17
Vcage
p18
tp19
Vbird cage
p20
s(V2010_005149
p21
Vcap
p22
tp23
Vhat
p24
s(V2010_005930
p25
Vcap
p26
tp27
Vhat
p28
s(V2008_007423
p29
Vcage
p30
tp31
Vbird feeder
p32
s(V2008_000472
p33
Vcage
p34
tp35
Vbird cage
p36
s(V2010_003520
p37
Vbedclothes
p38
tp39
Vcushion
p40
s(V2008_008528
p41
Vblade carrier
p42
tp43
Vbicycle
p44
s(V2008_006003
p45
Vboat
p46
tp47
Vfix
p48
s(V2010_003512
p49
Vcap
p50
tp51
Vbottle cap
p52
s(V2008_001283
p53
Vcage
p54
tp55
Vbird cage
p56
s(V2008_003922
p57
Vcaliduct
p58
tp59
Vradiator
p60
s(V2010_001199
p61
Vadornment
p62
tp63
Vplate
p64
s(V2008_000138
p65
Vcap
p66
tp67
Vhat
p68
s(V2009_001414
p69
Vcap
p70
tp71
Vbottle cap
p72
s(V2008_001920
p73
Vcap
p74
tp75
Vbottle cap
p76
s(V2008_003789
p77
Vcage
p78
tp79
Vbird cage
p80
s(V2010_005676
p81
Vcap
p82
tp83
Vhat
p84
s(V2009_000852
p85
Vboat
p86
tp87
Vmountain
p88
s(V2008_004058
p89
Vcap
p90
tp91
Vhat
p92
s(V2008_000981
p93
Vcar
p94
tp95
Vsidecar
p96
s(V2008_008141
p97
Vbike
p98
tp99
Vmotorbike
p100
s(V2008_008134
p101
Vcage
p102
tp103
Vbird cage
p104
s(V2008_007327
p105
Vcage
p106
tp107
Vbird cage
p108
s(V2009_003904
p109
Vcap
p110
tp111
Vhat
p112
s(V2009_001348
p113
Vcage
p114
tp115
Vbird cage
p116
s(V2008_000045
p117
Vbulb
p118
tp119
Vceiling
p120
s(V2008_003904
p121
Vbench
p122
tp123
Vcounter
p124
s(V2010_004712
p125
Vcap
p126
tp127
Vhat
p128
s(V2010_002713
p129
Vcage
p130
tp131
Vbird feeder
p132
s.