(dp0
(V2009_002053
p1
Vcleaner
p2
tp3
Vspray bottle
p4
s(V2010_004620
p5
Vbook
p6
tp7
Vfix to separate cd boxes from binders
p8
s(V2008_004819
p9
Vbook
p10
tp11
Vnewspaper
p12
s(V2010_001271
p13
Vcarpet
p14
tp15
Vrug
p16
s(V2010_004816
p17
Vbag
p18
tp19
Vpack
p20
s(V2009_005183
p21
Vbook
p22
tp23
Vpaper
p24
s(V2008_000397
p25
Vshelves
p26
tp27
Vcabinet
p28
s(V2008_006515
p29
Vclamp
p30
tp31
Vclip
p32
s(V2008_005569
p33
Vshelves
p34
tp35
Vcabinet
p36
s(V2008_001078
p37
Vcabinet
p38
tp39
Vfix mask
p40
s(V2008_006660
p41
Vbook
p42
tp43
Vmagazine
p44
s(V2008_003213
p45
Vbook
p46
tp47
Vbook
p48
s(V2010_002263
p49
Vbag
p50
tp51
Vpack
p52
s(V2010_005403
p53
Vbag
p54
tp55
Vpack
p56
s(V2009_000279
p57
Vdisc
p58
tp59
Vvinyl record
p60
s(V2009_001875
p61
Vbook
p62
tp63
Vfix to separate cd boxes form books
p64
s(V2008_008258
p65
Vwindow
p66
tp67
Vfix
p68
s(V2008_002885
p69
Vnotebook
p70
tp71
Vlaptop
p72
s(V2008_007103
p73
Vbag
p74
tp75
Vpack
p76
s(V2009_002885
p77
Vglass
p78
tp79
Vcup
p80
s(V2010_004816
p81
Vbook
p82
tp83
Vpaper
p84
s(V2010_005190
p85
Vcomputer
p86
tp87
Vlaptop
p88
s(V2009_002948
p89
Vcarpet
p90
tp91
Vrug
p92
s(V2010_001344
p93
Vrope
p94
tp95
Vwire
p96
s(V2008_005341
p97
Vcarriage
p98
tp99
Vfix
p100
s(V2010_000083
p101
Vbag
p102
tp103
Vpack
p104
s(V2009_002508
p105
Vboard
p106
tp107
Vfix
p108
s(V2008_007662
p109
Vbook
p110
tp111
Vcd box
p112
s(V2008_002384
p113
Vbag
p114
tp115
Vpack
p116
s(V2008_002880
p117
Vbag
p118
tp119
Vpack
p120
s(V2008_006606
p121
Vpad
p122
tp123
Vmouse pad
p124
s(V2008_005006
p125
Vbook
p126
tp127
Vcd box
p128
s(V2008_008148
p129
Vtrampoline
p130
tp131
Vfix
p132
s(V2008_004966
p133
Vbag
p134
tp135
Vpack
p136
s(V2009_002755
p137
Vdisc
p138
tp139
Vfix
p140
s(V2008_000246
p141
Vclippers
p142
tp143
Vfix
p144
s(V2008_000272
p145
Vbook
p146
tp147
Vpaper
p148
s(V2010_005450
p149
Vmonitor
p150
tp151
Vcomputer
p152
s(V2008_007987
p153
Vbook
p154
tp155
Vmagazine
p156
s(V2010_002539
p157
Vbook
p158
tp159
Vmenu
p160
s(V2010_002172
p161
Vbag
p162
tp163
Vpack
p164
s(V2008_006288
p165
Vbook
p166
tp167
Vcd box
p168
s(V2009_002094
p169
Vshelves
p170
tp171
Vcabinet
p172
s(V2009_004760
p173
Vcarpet
p174
tp175
Vrug
p176
s(V2008_008141
p177
Vbike
p178
tp179
Vmotorbike
p180
s(V2008_002088
p181
Vbook
p182
tp183
Vnewspaper
p184
s(V2010_004545
p185
Vcomputer
p186
tp187
Vfix
p188
s(V2009_003904
p189
Vcap
p190
tp191
Vhat
p192
s(V2008_004908
p193
Vbook
p194
tp195
Vpaper
p196
s(V2009_003924
p197
Vwindow
p198
tp199
Vfix
p200
s(V2010_005133
p201
Vcomputer
p202
tp203
Vfix to separate laptop from monitor
p204
s(V2010_002771
p205
Vshelves
p206
tp207
Vdish washer
p208
s(V2008_007536
p209
Vmonitor
p210
tp211
Vfix
p212
s(V2009_002493
p213
Vrope
p214
tp215
Vfix
p216
s(V2010_003973
p217
Vrope
p218
tp219
Vfix
p220
s(V2009_000066
p221
Vcattle
p222
tp223
Vfix
p224
s(V2009_001552
p225
Vdirt
p226
tp227
Vdirt mound
p228
s(V2009_005063
p229
Vstopper
p230
tp231
Vcork
p232
s(V2008_005037
p233
Vbook
p234
tp235
Vfix to separate laptop from papers
p236
s(V2008_007446
p237
Vshelves
p238
tp239
Vcabinet
p240
s(V2010_003040
p241
Vbag
p242
tp243
Vpack
p244
s(V2010_004596
p245
Vcomputer
p246
tp247
Vlaptop
p248
s(V2008_007169
p249
Vshelves
p250
tp251
Vcabinet
p252
s(V2008_006848
p253
Vboat
p254
tp255
Vfix
p256
s(V2009_000186
p257
Vpad
p258
tp259
Vmouse pad
p260
s(V2008_008097
p261
Vbag
p262
tp263
Vpack
p264
s(V2010_004223
p265
Vshelves
p266
tp267
Vchair
p268
s(V2008_002952
p269
Vpad
p270
tp271
Vmouse pad
p272
s(V2008_003995
p273
Vbook
p274
tp275
Vpaper
p276
s(V2008_000934
p277
Vbag
p278
tp279
Vpack
p280
s(V2008_003646
p281
Vclamp
p282
tp283
Vtong
p284
s(V2008_007865
p285
Vpad
p286
tp287
Vmouse pad
p288
s(V2010_002561
p289
Vbook
p290
tp291
Vpaper
p292
s(V2009_002612
p293
Vcurtain
p294
tp295
Vwindow blinds
p296
s(V2009_004352
p297
Vcarpet
p298
tp299
Vrug
p300
s(V2010_004596
p301
Vbag
p302
tp303
Vpack
p304
s(V2008_002413
p305
Vrope
p306
tp307
Vfix
p308
s(V2008_001283
p309
Vcage
p310
tp311
Vbird cage
p312
s(V2009_004537
p313
Vshelves
p314
tp315
Vcabinet
p316
s(V2010_005952
p317
Vcoin machine
p318
tp319
Vvending machine
p320
s(V2008_007575
p321
Vpad
p322
tp323
Vmouse pad
p324
s(V2008_006433
p325
Vbook
p326
tp327
Vpaper
p328
s(V2008_004188
p329
Vbag
p330
tp331
Vpack
p332
s(V2010_003623
p333
Vboat
p334
tp335
Vfix
p336
s(V2008_008700
p337
Vpad
p338
tp339
Vcoaster
p340
s(V2008_001758
p341
Vbook
p342
tp343
Vpaper
p344
s(V2008_004054
p345
Vbook
p346
tp347
Vpaper
p348
s(V2009_004716
p349
Vshelves
p350
tp351
Vcabinet
p352
s(V2009_004518
p353
Vbag
p354
tp355
Vpack
p356
s(V2009_001976
p357
Vnotebook
p358
tp359
Vlaptop
p360
s(V2010_001606
p361
Vbag
p362
tp363
Vpack
p364
s(V2008_002544
p365
Vrope
p366
tp367
Vwire
p368
s(V2009_001728
p369
Vboard
p370
tp371
Vfix
p372
s(V2008_003875
p373
Vstove
p374
tp375
Vfix
p376
s(V2008_006606
p377
Vbook
p378
tp379
Vfix to separate laptop form cd boxes
p380
s(V2010_003912
p381
Vbag
p382
tp383
Vpack
p384
s(V2009_003625
p385
Vrope
p386
tp387
Vfix
p388
s(V2010_005489
p389
Vbook
p390
tp391
Vpaper
p392
s(V2008_006625
p393
Vshelves
p394
tp395
Vcabinet
p396
s(V2009_003453
p397
Vbag
p398
tp399
Vpack
p400
s(V2009_003091
p401
Vbag
p402
tp403
Vpack
p404
s(V2009_000704
p405
Vbag
p406
tp407
Vpack
p408
s(V2008_000145
p409
Vdisc
p410
tp411
Vcd
p412
s(V2009_004053
p413
Vglass
p414
tp415
Vfix
p416
s(V2010_002419
p417
Vwindow
p418
tp419
Vfix
p420
s(V2008_005148
p421
Vcarpet
p422
tp423
Vrug
p424
s(V2009_004341
p425
Vshelves
p426
tp427
Vcabinet
p428
s(V2009_002525
p429
Vcage
p430
tp431
Vbird feeder
p432
s(V2009_000555
p433
Vcap
p434
tp435
Vhat
p436
s(V2008_007482
p437
Vcurtain
p438
tp439
Vwindow blinds
p440
s(V2010_003149
p441
Vbook
p442
tp443
Vmagazine
p444
s(V2009_005183
p445
Vbag
p446
tp447
Vpack
p448
s(V2009_000559
p449
Vcattle
p450
tp451
Vfix
p452
s(V2009_005205
p453
Vshelves
p454
tp455
Vcabinet
p456
s(V2008_003904
p457
Vbook
p458
tp459
Vpaper
p460
s(V2009_005042
p461
Vbook
p462
tp463
Vpaper
p464
s(V2009_005156
p465
Vbag
p466
tp467
Vpack
p468
s(V2009_003975
p469
Vcattle
p470
tp471
Vfix
p472
s(V2008_004719
p473
Vcomputer
p474
tp475
Vmonitor
p476
s(V2010_005847
p477
Vcarpet
p478
tp479
Vrug
p480
s(V2008_007615
p481
Vcup
p482
tp483
Vfix
p484
s(V2009_001778
p485
Vbag
p486
tp487
Vpack
p488
s(V2009_002497
p489
Vcap
p490
tp491
Vhat
p492
s(V2010_002097
p493
Vpad
p494
tp495
Vmouse pad
p496
s(V2009_000977
p497
Vpad
p498
tp499
Vmouse pad
p500
s(V2010_004479
p501
Vbook
p502
tp503
Vpaper
p504
s(V2008_005739
p505
Vbag
p506
tp507
Vpack
p508
s(V2008_003017
p509
Vshelves
p510
tp511
Vcabinet
p512
s(V2008_004754
p513
Vbook
p514
tp515
Vpaper
p516
s(V2010_001452
p517
Vbook
p518
tp519
Vpaper
p520
s(V2008_006890
p521
Vshelves
p522
tp523
Vcabinet
p524
s(V2010_004025
p525
Vbook
p526
tp527
Vpaper
p528
s(V2009_000791
p529
Vmonitor
p530
tp531
Vfix
p532
s(V2009_003349
p533
Vglass
p534
tp535
Vcup
p536
s(V2009_004515
p537
Vstopper
p538
tp539
Vcork
p540
s(V2009_003607
p541
Vcomputer
p542
tp543
Vmonitor
p544
s(V2008_003808
p545
Vcap
p546
tp547
Vfix
p548
s(V2009_005030
p549
Vbook
p550
tp551
Vfix to separate cd boxes from books
p552
s(V2009_000852
p553
Vboat
p554
tp555
Vmountain
p556
s(V2010_000589
p557
Vsand
p558
tp559
Vfix
p560
s(V2008_004492
p561
Vbook
p562
tp563
Vfix to separate laptop from newspaper and books
p564
s(V2009_004199
p565
Vbook
p566
tp567
Vfix to separate cd boxes from papers
p568
s(V2010_003544
p569
Vboat
p570
tp571
Vfix
p572
s(V2010_000439
p573
Vshelves
p574
tp575
Vcabinet
p576
s(V2010_004816
p577
Vcomputer
p578
tp579
Vfix
p580
s(V2009_000629
p581
Vmonitor
p582
tp583
Vfix to include other monitors
p584
s(V2009_004519
p585
Vnotebook
p586
tp587
Vpaper
p588
s(V2010_002982
p589
Vmonitor
p590
tp591
Vfix
p592
s(V2009_000096
p593
Vshelves
p594
tp595
Vcabinet
p596
s(V2009_002139
p597
Vglass
p598
tp599
Vcup
p600
s(V2008_001772
p601
Vbook
p602
tp603
Vpaper
p604
s(V2008_002119
p605
Vbook
p606
tp607
Vpaper
p608
s(V2008_000981
p609
Vcar
p610
tp611
Vsidecar
p612
s(V2008_004441
p613
Vbook
p614
tp615
Vpaper
p616
s(V2010_000602
p617
Vshelves
p618
tp619
Vcabinet
p620
s(V2010_003169
p621
Vbook
p622
tp623
Vnewspaper
p624
s(V2008_003253
p625
Vrope
p626
tp627
Vfix
p628
s(V2009_002134
p629
Vrope
p630
tp631
Vfix
p632
s(V2008_005329
p633
Vbag
p634
tp635
Vpack
p636
s(V2009_002758
p637
Vcd
p638
tp639
Vwineglass
p640
s(V2009_003632
p641
Vcarpet
p642
tp643
Vrug
p644
s(V2010_002166
p645
Vbook
p646
tp647
Vpaper
p648
s(V2010_005180
p649
Vcarpet
p650
tp651
Vrug
p652
s(V2008_003008
p653
Vbook
p654
tp655
Vfix unsure what's here
p656
s(V2009_004357
p657
Vmonitor
p658
tp659
Vfix
p660
s(V2008_006233
p661
Vrope
p662
tp663
Vwire
p664
s(V2009_003193
p665
Vbag
p666
tp667
Vpack
p668
s(V2010_000329
p669
Vbook
p670
tp671
Vmagazine
p672
s(V2008_005742
p673
Vbag
p674
tp675
Vpack
p676
s(V2010_000773
p677
Vshelves
p678
tp679
Vcabinet
p680
s(V2008_002680
p681
Vshelves
p682
tp683
Vcabinet
p684
s(V2010_000356
p685
Vbag
p686
tp687
Vpack
p688
s(V2008_005857
p689
Vbook
p690
tp691
Vpaper
p692
s(V2010_001366
p693
Vbook
p694
tp695
Vpaper
p696
s(V2010_004154
p697
Vbag
p698
tp699
Vpack
p700
s(V2010_002152
p701
Vmonitor
p702
tp703
Vfix
p704
s(V2008_002329
p705
Vbag
p706
tp707
Vpack
p708
s(V2008_001907
p709
Vclip
p710
tp711
Vhair clip
p712
s(V2010_001533
p713
Vmonitor
p714
tp715
Vfix
p716
s(V2009_002386
p717
Vcarpet
p718
tp719
Vrug
p720
s(V2008_007218
p721
Vpad
p722
tp723
Vrug
p724
s(V2009_002872
p725
Vmonitor
p726
tp727
Vcomputer
p728
s(V2010_004447
p729
Vbook
p730
tp731
Vpaper
p732
s(V2008_005248
p733
Vbook
p734
tp735
Vmagazine
p736
s(V2008_005846
p737
Vbook
p738
tp739
Vpaper
p740
s(V2010_002637
p741
Vboat
p742
tp743
Vfix
p744
s(V2009_002970
p745
Vbook
p746
tp747
Vcd box
p748
s(V2009_000041
p749
Vrope
p750
tp751
Vwire
p752
s(V2008_003193
p753
Vplastic
p754
tp755
Vbag
p756
s(V2010_003197
p757
Vcarpet
p758
tp759
Vfix
p760
s(V2008_002700
p761
Vbag
p762
tp763
Vpack
p764
s(V2008_001004
p765
Vboard
p766
tp767
Vcork board
p768
s(V2010_004050
p769
Vbook
p770
tp771
Vfix separate laptop from papers
p772
s(V2009_004234
p773
Vshelves
p774
tp775
Vfix mask and label
p776
s(V2010_001189
p777
Vcarpet
p778
tp779
Vrug
p780
s(V2010_000740
p781
Vbag
p782
tp783
Vpack
p784
s(V2008_003289
p785
Vbook
p786
tp787
Vpaper
p788
s(V2008_007922
p789
Vcarpet
p790
tp791
Vrug
p792
s(V2010_004125
p793
Vbag
p794
tp795
Vpack
p796
s(V2010_003035
p797
Vmonitor
p798
tp799
Vfix to include all of monitor
p800
s(V2008_008134
p801
Vcage
p802
tp803
Vbird cage
p804
s(V2008_001079
p805
Vcarpet
p806
tp807
Vrug
p808
s(V2008_005008
p809
Vmonitor
p810
tp811
Vfix
p812
s(V2010_005308
p813
Vbook
p814
tp815
Vpaper
p816
s(V2008_007780
p817
Vbook
p818
tp819
Vpaper
p820
s(V2010_001552
p821
Vbag
p822
tp823
Vpack
p824
s(V2010_003649
p825
Vbag
p826
tp827
Vpack
p828
s(V2008_003037
p829
Vbag
p830
tp831
Vpack
p832
s(V2008_007496
p833
Vcarpet
p834
tp835
Vrug
p836
s(V2010_005133
p837
Vbook
p838
tp839
Vpaper
p840
s(V2009_002915
p841
Vcarpet
p842
tp843
Vrug
p844
s(V2010_006056
p845
Vbucket
p846
tp847
Vbottle
p848
s(V2009_002542
p849
Vrock
p850
tp851
Vconcrete
p852
s(V2008_006373
p853
Vshelves
p854
tp855
Vcabinet
p856
s(V2010_000308
p857
Vbag
p858
tp859
Vpack
p860
s(V2008_001638
p861
Vbook
p862
tp863
Vpaper
p864
s(V2009_003247
p865
Vbag
p866
tp867
Vpack
p868
s(V2009_000096
p869
Vbedclothes
p870
tp871
Vcushion
p872
s(V2010_005305
p873
Vcomputer
p874
tp875
Vlaptop
p876
s(V2010_000691
p877
Vbook
p878
tp879
Vfix to separate laptop from papers
p880
s(V2008_000107
p881
Vbook
p882
tp883
Vmagazine
p884
s(V2008_006841
p885
Vcarpet
p886
tp887
Vrug
p888
s(V2008_001641
p889
Vbook
p890
tp891
Vpaper
p892
s(V2009_005001
p893
Vcarpet
p894
tp895
Vtable mat
p896
s(V2010_005825
p897
Vclamp
p898
tp899
Vtong
p900
s(V2008_005089
p901
Vbook
p902
tp903
Vpaper
p904
s(V2010_004335
p905
Vbook
p906
tp907
Vnewspaper
p908
s(V2008_007987
p909
Vbag
p910
tp911
Vpack
p912
s(V2010_005721
p913
Vbag
p914
tp915
Vpack
p916
s(V2008_000865
p917
Vpad
p918
tp919
Vmouse pad
p920
s(V2008_002052
p921
Vbook
p922
tp923
Vpaper
p924
s(V2010_002146
p925
Vbook
p926
tp927
Vpaper
p928
s(V2009_000257
p929
Vbook
p930
tp931
Vpaper
p932
s(V2009_004562
p933
Vcomputer
p934
tp935
Vlaptop
p936
s(V2009_001440
p937
Vbook
p938
tp939
Vpaper
p940
s(V2008_004391
p941
Vbook
p942
tp943
Vpaper
p944
s(V2008_001967
p945
Vbook
p946
tp947
Vpaper
p948
s(V2008_000974
p949
Vcarpet
p950
tp951
Vfix
p952
s(V2008_007478
p953
Vbag
p954
tp955
Vpack
p956
s(V2010_005676
p957
Vcap
p958
tp959
Vhat
p960
s(V2010_002193
p961
Vshelves
p962
tp963
Vcabinet
p964
s(V2008_003442
p965
Vshelves
p966
tp967
Vcabinet
p968
s(V2009_005232
p969
Vbook
p970
tp971
Vpaper
p972
s(V2008_003260
p973
Vsink
p974
tp975
Vbathtub
p976
s(V2008_003589
p977
Vcomputer
p978
tp979
Vfix separate laptop from computer
p980
s(V2009_000614
p981
Vbook
p982
tp983
Vpaper
p984
s(V2009_001414
p985
Vcap
p986
tp987
Vbottle cap
p988
s(V2008_004331
p989
Vbag
p990
tp991
Vpack
p992
s(V2008_003929
p993
Vglass
p994
tp995
Vcup
p996
s(V2009_003316
p997
Vcomputer
p998
tp999
Vmonitor
p1000
s(V2009_003208
p1001
Vbag
p1002
tp1003
Vpack
p1004
s(V2010_001680
p1005
Vbook
p1006
tp1007
Vpaper
p1008
s(V2008_006390
p1009
Vcarriage
p1010
tp1011
Vfix
p1012
s(V2008_001815
p1013
Vmonitor
p1014
tp1015
Vfix to include other monitors
p1016
s(V2008_007812
p1017
Vcage
p1018
tp1019
Vbird feeder
p1020
s(V2010_005906
p1021
Vcomputer
p1022
tp1023
Vmonitor
p1024
s(V2009_000328
p1025
Vcomputer
p1026
tp1027
Vlaptop
p1028
s(V2009_003518
p1029
Vchain
p1030
tp1031
Vbridle
p1032
s(V2008_006102
p1033
Vbag
p1034
tp1035
Vpack
p1036
s(V2010_002561
p1037
Vmonitor
p1038
tp1039
Vfix to include all of monitor
p1040
s(V2010_003689
p1041
Vsand
p1042
tp1043
Vfix
p1044
s(V2008_000860
p1045
Vcarpet
p1046
tp1047
Vrug
p1048
s(V2010_000557
p1049
Vbag
p1050
tp1051
Vpack
p1052
s(V2009_004177
p1053
Vbag
p1054
tp1055
Vpack
p1056
s(V2009_005102
p1057
Vshelves
p1058
tp1059
Vcabinet
p1060
s(V2009_001789
p1061
Vcarpet
p1062
tp1063
Vrug
p1064
s(V2010_004345
p1065
Vbook
p1066
tp1067
Vpaper
p1068
s(V2008_006710
p1069
Vbag
p1070
tp1071
Vpack
p1072
s(V2008_008773
p1073
Vbook
p1074
tp1075
Vfix to separate computer screen from papers
p1076
s(V2008_004948
p1077
Vbook
p1078
tp1079
Vpaper
p1080
s(V2010_002098
p1081
Vcarpet
p1082
tp1083
Vrug
p1084
s(V2010_001199
p1085
Vadornment
p1086
tp1087
Vplate
p1088
s(V2008_001896
p1089
Vshelves
p1090
tp1091
Vcabinet
p1092
s(V2008_003202
p1093
Vbag
p1094
tp1095
Vpack
p1096
s(V2008_001920
p1097
Vmonitor
p1098
tp1099
Vfix
p1100
s(V2008_000227
p1101
Vbook
p1102
tp1103
Vpaper
p1104
s(V2008_001815
p1105
Vpad
p1106
tp1107
Vmouse pad
p1108
s(V2009_004758
p1109
Vbag
p1110
tp1111
Vpack
p1112
s(V2009_002858
p1113
Vcarpet
p1114
tp1115
Vrug
p1116
s(V2009_004865
p1117
Vshelves
p1118
tp1119
Vcabinet
p1120
s(V2008_003315
p1121
Vboat
p1122
tp1123
Vfix
p1124
s(V2008_001947
p1125
Vbook
p1126
tp1127
Vpaper
p1128
s(V2009_003214
p1129
Vpad
p1130
tp1131
Vmouse pad
p1132
s(V2009_003852
p1133
Vcomputer
p1134
tp1135
Vlaptop
p1136
s(V2008_001920
p1137
Vcap
p1138
tp1139
Vbottle cap
p1140
s(V2008_007570
p1141
Vcap
p1142
tp1143
Vhat
p1144
s(V2008_002284
p1145
Vcamel
p1146
tp1147
Vfix
p1148
s(V2008_006887
p1149
Vcomputer
p1150
tp1151
Vfix
p1152
s(V2008_004719
p1153
Vbook
p1154
tp1155
Vpaper
p1156
s(V2008_005359
p1157
Vbag
p1158
tp1159
Vpack
p1160
s(V2008_000733
p1161
Vcarpet
p1162
tp1163
Vrug
p1164
s(V2009_003800
p1165
Vbag
p1166
tp1167
Vpack
p1168
s(V2010_004125
p1169
Vbook
p1170
tp1171
Vpaper
p1172
s(V2010_002308
p1173
Vcarpet
p1174
tp1175
Vrug
p1176
s(V2010_002418
p1177
Vbook
p1178
tp1179
Vpaper
p1180
s(V2009_000697
p1181
Vnotebook
p1182
tp1183
Vpap
p1184
s(V2010_005008
p1185
Vcarpet
p1186
tp1187
Vrug
p1188
s(V2008_004830
p1189
Vcarpet
p1190
tp1191
Vrug
p1192
s(V2009_003196
p1193
Vbag
p1194
tp1195
Vpack
p1196
s(V2010_002713
p1197
Vcage
p1198
tp1199
Vbird feeder
p1200
s(V2008_004330
p1201
Vbook
p1202
tp1203
Vfix to separate box from books
p1204
s(V2008_004982
p1205
Vbook
p1206
tp1207
Vpaper
p1208
s(V2009_002098
p1209
Vbook
p1210
tp1211
Vmagazine
p1212
s(V2009_001105
p1213
Vcup
p1214
tp1215
Vcandle
p1216
s(V2009_003676
p1217
Vstove
p1218
tp1219
Vfire place
p1220
s(V2008_007091
p1221
Vbook
p1222
tp1223
Vfix not sure what's here
p1224
s(V2010_005372
p1225
Vbook
p1226
tp1227
Vfix to separate organizer from papers
p1228
s(V2008_001216
p1229
Vstapler
p1230
tp1231
Vfix
p1232
s(V2008_002817
p1233
Vbook
p1234
tp1235
Vmagazine
p1236
s(V2008_006031
p1237
Vbag
p1238
tp1239
Vpack
p1240
s(V2009_000641
p1241
Vcattle
p1242
tp1243
Vcow
p1244
s(V2009_000615
p1245
Vbook
p1246
tp1247
Vcd box
p1248
s(V2008_004416
p1249
Vbook
p1250
tp1251
Vpaper
p1252
s(V2008_003467
p1253
Vbag
p1254
tp1255
Vpack
p1256
s(V2008_006967
p1257
Vbag
p1258
tp1259
Vpack
p1260
s(V2010_003520
p1261
Vbedclothes
p1262
tp1263
Vcushion
p1264
s(V2008_004140
p1265
Vbag
p1266
tp1267
Vpack
p1268
s(V2008_004844
p1269
Vrock
p1270
tp1271
Vconcrete
p1272
s(V2009_003049
p1273
Vmachine
p1274
tp1275
Vfix
p1276
s(V2008_004487
p1277
Vbook
p1278
tp1279
Vfix to separate laptop from papers and cd box
p1280
s(V2008_006776
p1281
Vbag
p1282
tp1283
Vpack
p1284
s(V2010_000999
p1285
Vcarpet
p1286
tp1287
Vfix
p1288
s(V2009_004905
p1289
Vmonitor
p1290
tp1291
Vfix
p1292
s(V2008_001576
p1293
Vbook
p1294
tp1295
Vpaper
p1296
s(V2010_003512
p1297
Vcap
p1298
tp1299
Vbottle cap
p1300
s(V2009_001392
p1301
Vcarpet
p1302
tp1303
Vrug
p1304
s(V2008_008598
p1305
Vbag
p1306
tp1307
Vpack
p1308
s(V2009_002651
p1309
Vbag
p1310
tp1311
Vpack
p1312
s(V2008_005438
p1313
Vcart
p1314
tp1315
Vfix
p1316
s(V2010_005561
p1317
Vbook
p1318
tp1319
Vpaper
p1320
s(V2009_004519
p1321
Vbook
p1322
tp1323
Vpaper
p1324
s(V2008_004081
p1325
Vbag
p1326
tp1327
Vpack
p1328
s(V2009_000939
p1329
Vshelves
p1330
tp1331
Vcabinet
p1332
s(V2008_001297
p1333
Vsand
p1334
tp1335
Vfix
p1336
s(V2010_004493
p1337
Vchain
p1338
tp1339
Vfix
p1340
s(V2009_003576
p1341
Vshelves
p1342
tp1343
Vrailing
p1344
s(V2009_001679
p1345
Vbell
p1346
tp1347
Vcandle holders
p1348
s(V2008_001544
p1349
Vrope
p1350
tp1351
Vfix
p1352
s(V2010_005180
p1353
Vbook
p1354
tp1355
Vpaper
p1356
s(V2008_004549
p1357
Vbag
p1358
tp1359
Vpack
p1360
s(V2008_006807
p1361
Vbag
p1362
tp1363
Vpack
p1364
s(V2010_001849
p1365
Vbook
p1366
tp1367
Vpaper
p1368
s(V2009_000760
p1369
Vshelves
p1370
tp1371
Vcabinet
p1372
s(V2008_004040
p1373
Vbag
p1374
tp1375
Vpack
p1376
s(V2010_005810
p1377
Vbag
p1378
tp1379
Vpack
p1380
s(V2008_006701
p1381
Vshelves
p1382
tp1383
Vcabinet
p1384
s(V2010_006073
p1385
Vcarpet
p1386
tp1387
Vrug
p1388
s(V2008_003912
p1389
Vboat
p1390
tp1391
Vfix
p1392
s(V2008_008619
p1393
Vbag
p1394
tp1395
Vpack
p1396
s(V2008_002868
p1397
Vbag
p1398
tp1399
Vpack
p1400
s(V2010_000405
p1401
Vpad
p1402
tp1403
Vmouse pad
p1404
s(V2010_004600
p1405
Vbook
p1406
tp1407
Vpaper
p1408
s(V2009_001864
p1409
Vshelves
p1410
tp1411
Vcabinet
p1412
s(V2008_006267
p1413
Vcomputer
p1414
tp1415
Vfix to separate monitor from computer
p1416
s(V2009_003899
p1417
Vbook
p1418
tp1419
Vpaper
p1420
s(V2009_001540
p1421
Vboard
p1422
tp1423
Vfence
p1424
s(V2008_004471
p1425
Vbag
p1426
tp1427
Vpack
p1428
s(V2008_002377
p1429
Vcap
p1430
tp1431
Vhat
p1432
s(V2009_004580
p1433
Vbag
p1434
tp1435
Vpack
p1436
s(V2009_003850
p1437
Vcarpet
p1438
tp1439
Vrug
p1440
s(V2008_005037
p1441
Vbag
p1442
tp1443
Vpack
p1444
s(V2008_008064
p1445
Vbag
p1446
tp1447
Vpack
p1448
s(V2009_001188
p1449
Vbook
p1450
tp1451
Vfix to separate laptop from papers
p1452
s(V2010_003719
p1453
Vbook
p1454
tp1455
Vpaper
p1456
s(V2008_007334
p1457
Vrope
p1458
tp1459
Vfix
p1460
s(V2008_007921
p1461
Vcap
p1462
tp1463
Vhat
p1464
s(V2009_001098
p1465
Vbag
p1466
tp1467
Vpack
p1468
s(V2010_000133
p1469
Vbag
p1470
tp1471
Vpack
p1472
s(V2008_004720
p1473
Vbook
p1474
tp1475
Vpaper
p1476
s(V2008_001723
p1477
Vbook
p1478
tp1479
Vpaper
p1480
s(V2009_000944
p1481
Vnotebook
p1482
tp1483
Vunknown
p1484
s(V2009_005300
p1485
Vbag
p1486
tp1487
Vpack
p1488
s(V2008_006076
p1489
Vshelves
p1490
tp1491
Vcabinet
p1492
s(V2010_004479
p1493
Vcomputer
p1494
tp1495
Vfix
p1496
s(V2010_001340
p1497
Vcarpet
p1498
tp1499
Vfloor mat
p1500
s(V2008_008528
p1501
Vblade carrier
p1502
tp1503
Vbicycle
p1504
s(V2009_004847
p1505
Vshelves
p1506
tp1507
Vcabinet
p1508
s(V2008_005315
p1509
Vbag
p1510
tp1511
Vpack
p1512
s(V2008_008443
p1513
Vbag
p1514
tp1515
Vpack
p1516
s(V2010_005405
p1517
Vbook
p1518
tp1519
Vpaper
p1520
s(V2008_004858
p1521
Vbag
p1522
tp1523
Vpack
p1524
s(V2008_005399
p1525
Vbook
p1526
tp1527
Vpaper
p1528
s(V2009_004984
p1529
Vbag
p1530
tp1531
Vpack
p1532
s(V2009_003759
p1533
Vcarpet
p1534
tp1535
Vrig
p1536
s(V2009_002054
p1537
Vbag
p1538
tp1539
Vpack
p1540
s(V2008_000002
p1541
Vbook
p1542
tp1543
Vpaper
p1544
s(V2010_004306
p1545
Vshelves
p1546
tp1547
Vcabinet
p1548
s(V2008_003834
p1549
Vsink
p1550
tp1551
Vbathtub
p1552
s(V2008_007286
p1553
Vshelves
p1554
tp1555
Vcabinet
p1556
s(V2010_002336
p1557
Vcarpet
p1558
tp1559
Vrug
p1560
s(V2008_001230
p1561
Vbook
p1562
tp1563
Vmenu
p1564
s(V2010_001699
p1565
Vbook
p1566
tp1567
Vnewspaper
p1568
s(V2008_007986
p1569
Vbook
p1570
tp1571
Vpaper
p1572
s(V2008_007755
p1573
Vboat
p1574
tp1575
Vfix
p1576
s(V2009_004224
p1577
Vbag
p1578
tp1579
Vpack
p1580
s(V2010_005992
p1581
Vcarpet
p1582
tp1583
Vrug
p1584
s(V2009_001508
p1585
Vbag
p1586
tp1587
Vpack
p1588
s(V2010_003976
p1589
Vbook
p1590
tp1591
Vnewspaper
p1592
s(V2008_005055
p1593
Vbag
p1594
tp1595
Vpack
p1596
s(V2009_004859
p1597
Vshelves
p1598
tp1599
Vfix mask
p1600
s(V2010_005578
p1601
Vbook
p1602
tp1603
Vnewspaper
p1604
s(V2010_004816
p1605
Vdisc
p1606
tp1607
Vcd
p1608
s(V2009_001343
p1609
Vbook
p1610
tp1611
Vpaper
p1612
s(V2009_004800
p1613
Vpad
p1614
tp1615
Vmouse pad
p1616
s(V2008_002774
p1617
Vbag
p1618
tp1619
Vpack
p1620
s(V2008_001914
p1621
Vbag
p1622
tp1623
Vpack
p1624
s(V2009_003607
p1625
Vbag
p1626
tp1627
Vpack
p1628
s(V2008_000045
p1629
Vbulb
p1630
tp1631
Vceiling
p1632
s(V2009_005286
p1633
Vbag
p1634
tp1635
Vpack
p1636
s(V2008_001333
p1637
Vbook
p1638
tp1639
Vmagazine
p1640
s(V2008_005191
p1641
Vmonitor
p1642
tp1643
Vfix
p1644
s(V2009_003123
p1645
Vbook
p1646
tp1647
Vcd box
p1648
s(V2008_001486
p1649
Vglass
p1650
tp1651
Vcup
p1652
s(V2010_003108
p1653
Vbag
p1654
tp1655
Vpack
p1656
s(V2009_005256
p1657
Vmonitor
p1658
tp1659
Vfix
p1660
s(V2009_000895
p1661
Vpad
p1662
tp1663
Vmouse pad
p1664
s(V2010_000245
p1665
Vchain
p1666
tp1667
Vfix
p1668
s(V2010_001886
p1669
Vcrate
p1670
tp1671
Vbasket
p1672
s(V2008_007090
p1673
Vbag
p1674
tp1675
Vpack
p1676
s(V2008_002885
p1677
Vshelves
p1678
tp1679
Vcabinet
p1680
s(V2008_004501
p1681
Vpad
p1682
tp1683
Vmouse pad
p1684
s(V2010_002796
p1685
Vclamp
p1686
tp1687
Vtong
p1688
s(V2009_001925
p1689
Vclippers
p1690
tp1691
Vscissors
p1692
s(V2010_004987
p1693
Vbook
p1694
tp1695
Vpaper
p1696
s(V2009_001135
p1697
Vbag
p1698
tp1699
Vpack
p1700
s(V2009_002524
p1701
Vbag
p1702
tp1703
Vpack
p1704
s(V2008_003546
p1705
Vshelves
p1706
tp1707
Vcabinet
p1708
s(V2010_006050
p1709
Vbook
p1710
tp1711
Vpaper
p1712
s(V2009_001447
p1713
Vbag
p1714
tp1715
Vpack
p1716
s(V2008_005651
p1717
Vrope
p1718
tp1719
Vwire
p1720
s(V2008_004819
p1721
Vbag
p1722
tp1723
Vpack
p1724
s(V2008_004492
p1725
Vchessboard
p1726
tp1727
Vfix
p1728
s(V2008_005967
p1729
Vbook
p1730
tp1731
Vfix to separate laptop from paper
p1732
s(V2008_002920
p1733
Vbook
p1734
tp1735
Vmagazine
p1736
s(V2009_004645
p1737
Vbag
p1738
tp1739
Vpack
p1740
s(V2008_007307
p1741
Vshelves
p1742
tp1743
Vrack
p1744
s(V2008_001304
p1745
Vbook
p1746
tp1747
Vcd box
p1748
s(V2010_002860
p1749
Vshelves
p1750
tp1751
Vcabinet
p1752
s(V2008_005248
p1753
Vbag
p1754
tp1755
Vpack
p1756
s(V2008_006005
p1757
Vrope
p1758
tp1759
Vtube
p1760
s(V2008_002521
p1761
Vbook
p1762
tp1763
Vpaper
p1764
s(V2008_007324
p1765
Vpad
p1766
tp1767
Vmouse pad
p1768
s(V2008_001871
p1769
Vcarpet
p1770
tp1771
Vrug
p1772
s(V2008_003434
p1773
Vshelves
p1774
tp1775
Vcabinet
p1776
s(V2008_006662
p1777
Vpad
p1778
tp1779
Vfix
p1780
s(V2008_007459
p1781
Vbag
p1782
tp1783
Vpack
p1784
s(V2010_003949
p1785
Vbag
p1786
tp1787
Vpack
p1788
s(V2010_003227
p1789
Vbedclothes
p1790
tp1791
Vcushion
p1792
s(V2008_007327
p1793
Vcage
p1794
tp1795
Vbird cage
p1796
s(V2009_001348
p1797
Vcage
p1798
tp1799
Vbird cage
p1800
s(V2008_003904
p1801
Vbench
p1802
tp1803
Vcounter
p1804
s(V2008_001580
p1805
Vbag
p1806
tp1807
Vpack
p1808
s(V2009_002444
p1809
Vshelves
p1810
tp1811
Vcabinet
p1812
s(V2008_002852
p1813
Vbook
p1814
tp1815
Vpaper
p1816
s(V2010_003103
p1817
Vbook
p1818
tp1819
Vpaper
p1820
s(V2010_004778
p1821
Vbook
p1822
tp1823
Vmenu
p1824
s(V2008_007175
p1825
Vcarpet
p1826
tp1827
Vrug
p1828
s(V2009_000990
p1829
Vbag
p1830
tp1831
Vpack
p1832
s(V2010_006076
p1833
Vbook
p1834
tp1835
Vpaper
p1836
s(V2008_007561
p1837
Vpad
p1838
tp1839
Vmouse pad
p1840
s(V2008_005989
p1841
Vbag
p1842
tp1843
Vpack
p1844
s(V2008_006047
p1845
Vbag
p1846
tp1847
Vpack
p1848
s(V2010_003770
p1849
Vshelves
p1850
tp1851
Vcabinet
p1852
s(V2010_002336
p1853
Vbook
p1854
tp1855
Vpaper
p1856
s(V2010_004168
p1857
Vbag
p1858
tp1859
Vpack
p1860
s(V2008_003262
p1861
Vpad
p1862
tp1863
Vmouse pad
p1864
s(V2008_004329
p1865
Vboard
p1866
tp1867
Vwhite board
p1868
s(V2009_000567
p1869
Vbook
p1870
tp1871
Vmagazine
p1872
s(V2008_003969
p1873
Vbag
p1874
tp1875
Vpack
p1876
s(V2009_001480
p1877
Vbag
p1878
tp1879
Vpack
p1880
s(V2010_002512
p1881
Vbook
p1882
tp1883
Vpaper
p1884
s(V2010_004192
p1885
Vbook
p1886
tp1887
Vnewspaper
p1888
s(V2009_004769
p1889
Vbook
p1890
tp1891
Vpaper
p1892
s(V2010_003894
p1893
Vbag
p1894
tp1895
Vpack
p1896
s(V2008_005783
p1897
Vcap
p1898
tp1899
Vcork
p1900
s(V2010_000669
p1901
Vbook
p1902
tp1903
Vnewspaper
p1904
s(V2009_003490
p1905
Vbag
p1906
tp1907
Vpack
p1908
s(V2008_007872
p1909
Vbag
p1910
tp1911
Vpack
p1912
s(V2009_000635
p1913
Vbook
p1914
tp1915
Vfix to separate desk chair from books
p1916
s(V2010_001533
p1917
Vbook
p1918
tp1919
Vpaper
p1920
s(V2010_004102
p1921
Vbook
p1922
tp1923
Vpaper
p1924
s(V2009_001821
p1925
Vcarpet
p1926
tp1927
Vrug
p1928
s(V2009_001758
p1929
Vbag
p1930
tp1931
Vpack
p1932
s(V2008_008608
p1933
Vbook
p1934
tp1935
Vpaper
p1936
s(V2008_004541
p1937
Vbook
p1938
tp1939
Vpaper
p1940
s(V2008_001981
p1941
Vsand
p1942
tp1943
Vfix
p1944
s(V2010_001579
p1945
Vbook
p1946
tp1947
Vmenu
p1948
s(V2008_003230
p1949
Vrope
p1950
tp1951
Vwire
p1952
s(V2008_001967
p1953
Vbag
p1954
tp1955
Vpack
p1956
s(V2010_003177
p1957
Vrope
p1958
tp1959
Vfix
p1960
s(V2008_007523
p1961
Vskateboard
p1962
tp1963
Vscooter
p1964
s(V2010_001940
p1965
Vbook
p1966
tp1967
Vpaper
p1968
s(V2009_004200
p1969
Vdog chain
p1970
tp1971
Vdog
p1972
s(V2010_005906
p1973
Vbag
p1974
tp1975
Vpack
p1976
s(V2008_008730
p1977
Vboard
p1978
tp1979
Vwhiteboard
p1980
s(V2009_002366
p1981
Vpad
p1982
tp1983
Vmouse pad
p1984
s(V2010_004679
p1985
Vstick
p1986
tp1987
Vfix
p1988
s(V2010_002890
p1989
Vcarpet
p1990
tp1991
Vrug
p1992
s(V2009_003251
p1993
Vbook
p1994
tp1995
Vpaper
p1996
s(V2009_002500
p1997
Vcarpet
p1998
tp1999
Vrug
p2000
s(V2010_004295
p2001
Vshelves
p2002
tp2003
Vsupport
p2004
s(V2009_004561
p2005
Vmonitor
p2006
tp2007
Vfix
p2008
s(V2009_003208
p2009
Vshelves
p2010
tp2011
Vcabinet
p2012
s(V2009_002806
p2013
Vbag
p2014
tp2015
Vpack
p2016
s(V2010_003287
p2017
Vbook
p2018
tp2019
Vpaper
p2020
s(V2008_004333
p2021
Vcomputer
p2022
tp2023
Vmonitor
p2024
s(V2010_001673
p2025
Vcarpet
p2026
tp2027
Vfloor mat
p2028
s(V2009_001874
p2029
Vcarpet
p2030
tp2031
Vrug
p2032
s(V2008_004506
p2033
Vbook
p2034
tp2035
Vpaper
p2036
s(V2010_000645
p2037
Vrock
p2038
tp2039
Vcar stop pillar
p2040
s(V2009_000848
p2041
Vcomputer
p2042
tp2043
Vmonitor
p2044
s(V2010_002982
p2045
Vbook
p2046
tp2047
Vpaper
p2048
s(V2009_004307
p2049
Vbag
p2050
tp2051
Vpack
p2052
s(V2008_006003
p2053
Vboat
p2054
tp2055
Vfix
p2056
s(V2010_002397
p2057
Vtent
p2058
tp2059
Vfix
p2060
s(V2009_000439
p2061
Vbook
p2062
tp2063
Vmagazine
p2064
s(V2008_006969
p2065
Vbag
p2066
tp2067
Vpack
p2068
s(V2008_000641
p2069
Vcarpet
p2070
tp2071
Vrug
p2072
s(V2008_005037
p2073
Vrope
p2074
tp2075
Vwire
p2076
s(V2010_004797
p2077
Vshelves
p2078
tp2079
Vfix mask
p2080
s(V2009_003785
p2081
Vbook
p2082
tp2083
Vpaper
p2084
s(V2008_008221
p2085
Vbag
p2086
tp2087
Vpack
p2088
s(V2010_005433
p2089
Vplastic
p2090
tp2091
Vcanvas
p2092
s(V2008_002776
p2093
Vbook
p2094
tp2095
Vmagazine
p2096
s(V2008_006299
p2097
Vnotebook
p2098
tp2099
Vpaper
p2100
s(V2008_005329
p2101
Vbook
p2102
tp2103
Vfix to separate laptop from book
p2104
s(V2008_003922
p2105
Vcaliduct
p2106
tp2107
Vradiator
p2108
s(V2010_004062
p2109
Vbook
p2110
tp2111
Vmagazine
p2112
s(V2009_002872
p2113
Vshelves
p2114
tp2115
Vcabinet
p2116
s(V2009_002755
p2117
Vshelves
p2118
tp2119
Vcabinet
p2120
s(V2009_004889
p2121
Vcarpet
p2122
tp2123
Vfix
p2124
s(V2009_000471
p2125
Vcattle
p2126
tp2127
Vcow
p2128
s(V2008_000138
p2129
Vcap
p2130
tp2131
Vhat
p2132
s(V2009_002457
p2133
Vcart
p2134
tp2135
Vfix
p2136
s(V2008_000566
p2137
Vcomputer
p2138
tp2139
Vmonitor
p2140
s(V2008_003344
p2141
Vsand
p2142
tp2143
Vfix
p2144
s(V2008_008470
p2145
Vbag
p2146
tp2147
Vpack
p2148
s(V2010_001592
p2149
Vbag
p2150
tp2151
Vpack
p2152
s(V2008_004278
p2153
Vbag
p2154
tp2155
Vpack
p2156
s(V2009_002224
p2157
Vboard
p2158
tp2159
Vfence
p2160
s(V2010_005308
p2161
Vcarpet
p2162
tp2163
Vrug
p2164
s(V2009_001069
p2165
Vcomputer
p2166
tp2167
Vfix to separate monitor from computer
p2168
s(V2008_003686
p2169
Vcoin machine
p2170
tp2171
Vvending machine
p2172
s(V2010_004741
p2173
Vcarpet
p2174
tp2175
Vrug
p2176
s(V2008_007446
p2177
Vmonitor
p2178
tp2179
Vfix
p2180
s(V2010_000375
p2181
Vbag
p2182
tp2183
Vpack
p2184
s(V2010_005744
p2185
Vbook
p2186
tp2187
Vpaper
p2188
s(V2008_006124
p2189
Vbag
p2190
tp2191
Vpack
p2192
s(V2008_005014
p2193
Vcarpet
p2194
tp2195
Vrug
p2196
s(V2008_005639
p2197
Vbook
p2198
tp2199
Vcd box
p2200
s(V2008_008382
p2201
Vbag
p2202
tp2203
Vpack
p2204
s(V2008_004506
p2205
Vcomputer
p2206
tp2207
Vfix to separate monitor from computer
p2208
s(V2010_003034
p2209
Vbook
p2210
tp2211
Vpaper
p2212
s(V2008_006816
p2213
Vbook
p2214
tp2215
Vpaper
p2216
s(V2009_003002
p2217
Vcage
p2218
tp2219
Vbird cage
p2220
s(V2010_000821
p2221
Vbook
p2222
tp2223
Vpaper
p2224
s(V2008_006676
p2225
Vcarpet
p2226
tp2227
Vrug
p2228
s(V2009_000901
p2229
Vbag
p2230
tp2231
Vpack
p2232
s(V2009_004243
p2233
Vcarpet
p2234
tp2235
Vfloor mat
p2236
s(V2010_005894
p2237
Vbook
p2238
tp2239
Vfix to separate laptop from papers
p2240
s(V2009_000021
p2241
Vbag
p2242
tp2243
Vpack
p2244
s(V2009_000895
p2245
Vcomputer
p2246
tp2247
Vmonitor
p2248
s(V2008_003140
p2249
Vbag
p2250
tp2251
Vpack
p2252
s(V2008_008275
p2253
Vbag
p2254
tp2255
Vpack
p2256
s(V2010_000408
p2257
Vcarpet
p2258
tp2259
Vrug
p2260
s(V2008_006629
p2261
Vcarpet
p2262
tp2263
Vrug
p2264
s(V2008_008637
p2265
Vbag
p2266
tp2267
Vpack
p2268
s(V2010_004523
p2269
Vcomputer
p2270
tp2271
Vfix
p2272
s(V2009_000574
p2273
Vcattle
p2274
tp2275
Vfix
p2276
s(V2008_000472
p2277
Vcage
p2278
tp2279
Vbird cage
p2280
s(V2009_000214
p2281
Vbook
p2282
tp2283
Vpaper
p2284
s(V2009_001615
p2285
Vbook
p2286
tp2287
Vpaper
p2288
s(V2008_001768
p2289
Vnotebook
p2290
tp2291
Vfix
p2292
s(V2009_004701
p2293
Vbag
p2294
tp2295
Vpack
p2296
s(V2010_000361
p2297
Vbook
p2298
tp2299
Vpaper
p2300
s(V2008_004866
p2301
Vbag
p2302
tp2303
Vpack
p2304
s(V2010_004712
p2305
Vcap
p2306
tp2307
Vhat
p2308
s(V2010_003628
p2309
Vbag
p2310
tp2311
Vpack
p2312
s(V2008_008310
p2313
Vbag
p2314
tp2315
Vpack
p2316
s(V2009_003819
p2317
Vbook
p2318
tp2319
Vmagazine
p2320
s(V2008_008474
p2321
Vbook
p2322
tp2323
Vfix to separate photo from papers
p2324
s(V2010_002527
p2325
Vcarpet
p2326
tp2327
Vrug
p2328
s(V2010_003988
p2329
Vbook
p2330
tp2331
Vpaper
p2332
s(V2008_005008
p2333
Vrope
p2334
tp2335
Vwire
p2336
s(V2008_007282
p2337
Vbag
p2338
tp2339
Vpack
p2340
s(V2010_003204
p2341
Vcarpet
p2342
tp2343
Vrug
p2344
s(V2008_002515
p2345
Vbook
p2346
tp2347
Vpaper
p2348
s(V2010_001851
p2349
Vshelves
p2350
tp2351
Vcabinet
p2352
s(V2009_005030
p2353
Vmonitor
p2354
tp2355
Vfix
p2356
s(V2009_004701
p2357
Vshelves
p2358
tp2359
Vcabinet
p2360
s(V2010_003468
p2361
Vbag
p2362
tp2363
Vpack
p2364
s(V2009_003956
p2365
Vcattle
p2366
tp2367
Vfix
p2368
s(V2009_000305
p2369
Vbag
p2370
tp2371
Vpack
p2372
s(V2008_007339
p2373
Vbook
p2374
tp2375
Vpaper
p2376
s(V2008_002376
p2377
Vcarpet
p2378
tp2379
Vrug
p2380
s(V2008_004836
p2381
Vcarpet
p2382
tp2383
Vrug
p2384
s(V2009_001573
p2385
Vrope
p2386
tp2387
Vfix
p2388
s(V2008_006946
p2389
Vbook
p2390
tp2391
Vfix to separate laptop from papers and whisky boxes
p2392
s(V2008_005781
p2393
Vrope
p2394
tp2395
Vwire
p2396
s(V2010_004247
p2397
Vsaddle
p2398
tp2399
Vfix
p2400
s(V2008_007423
p2401
Vcage
p2402
tp2403
Vbird feeder
p2404
s(V2008_006117
p2405
Vcomputer
p2406
tp2407
Vlaptop
p2408
s(V2009_004674
p2409
Vbook
p2410
tp2411
Vpaper
p2412
s(V2008_001937
p2413
Vshelves
p2414
tp2415
Vcabinet
p2416
s(V2010_004889
p2417
Vbag
p2418
tp2419
Vpack
p2420
s(V2008_007081
p2421
Vcarpet
p2422
tp2423
Vrug
p2424
s(V2008_002576
p2425
Vbag
p2426
tp2427
Vpack
p2428
s(V2008_004501
p2429
Vmonitor
p2430
tp2431
Vfix
p2432
s(V2009_002350
p2433
Vbag
p2434
tp2435
Vpack
p2436
s(V2008_002082
p2437
Vbook
p2438
tp2439
Vmagazine
p2440
s(V2010_005371
p2441
Vbook
p2442
tp2443
Vpaper
p2444
s(V2008_003883
p2445
Vshelves
p2446
tp2447
Vcabinet
p2448
s(V2010_002639
p2449
Vbook
p2450
tp2451
Vpaper
p2452
s(V2008_008206
p2453
Vshelves
p2454
tp2455
Vcabinet
p2456
s(V2008_001907
p2457
Vbook
p2458
tp2459
Vmenu
p2460
s(V2008_003568
p2461
Vpad
p2462
tp2463
Vmouse pad
p2464
s(V2009_002469
p2465
Vcarpet
p2466
tp2467
Vrug
p2468
s(V2008_001692
p2469
Vdisc
p2470
tp2471
Vvinyl record
p2472
s(V2010_005718
p2473
Vrope
p2474
tp2475
Vfuel line
p2476
s(V2010_001366
p2477
Vbag
p2478
tp2479
Vpack
p2480
s(V2010_001891
p2481
Vbag
p2482
tp2483
Vpack
p2484
s(V2009_002253
p2485
Vbook
p2486
tp2487
Vpaper
p2488
s(V2010_005770
p2489
Vbook
p2490
tp2491
Vfix separate laptop and papers
p2492
s(V2008_001812
p2493
Vbook
p2494
tp2495
Vpaper
p2496
s(V2009_002228
p2497
Vmonitor
p2498
tp2499
Vsecurity camera
p2500
s(V2009_003204
p2501
Vshelves
p2502
tp2503
Vcabinet
p2504
s(V2008_003914
p2505
Vbook
p2506
tp2507
Vfix to separate cd box from books
p2508
s(V2008_005486
p2509
Vboat
p2510
tp2511
Vfix
p2512
s(V2009_003748
p2513
Vcarpet
p2514
tp2515
Vrig
p2516
s(V2008_001796
p2517
Vbook
p2518
tp2519
Vmagazine
p2520
s(V2008_008080
p2521
Vbag
p2522
tp2523
Vpack
p2524
s(V2008_004505
p2525
Vbag
p2526
tp2527
Vpack
p2528
s(V2008_000149
p2529
Vcarpet
p2530
tp2531
Vrug
p2532
s(V2008_008745
p2533
Vbag
p2534
tp2535
Vpack
p2536
s(V2010_003204
p2537
Vbook
p2538
tp2539
Vcd box
p2540
s(V2010_003731
p2541
Vbag
p2542
tp2543
Vpack
p2544
s(V2008_004418
p2545
Vshelves
p2546
tp2547
Vcabinet
p2548
s(V2009_002792
p2549
Vbag
p2550
tp2551
Vpack
p2552
s(V2008_002555
p2553
Vbag
p2554
tp2555
Vpack
p2556
s(V2010_005054
p2557
Vbook
p2558
tp2559
Vmagazine
p2560
s(V2010_005841
p2561
Vbook
p2562
tp2563
Vpaper towel
p2564
s(V2009_000287
p2565
Vbag
p2566
tp2567
Vpack
p2568
s(V2008_006689
p2569
Vwindow
p2570
tp2571
Vwindow blinds
p2572
s(V2008_004382
p2573
Vrope
p2574
tp2575
Vwire
p2576
s(V2009_005103
p2577
Vbag
p2578
tp2579
Vpack
p2580
s(V2010_004481
p2581
Vbag
p2582
tp2583
Vpack
p2584
s(V2008_004898
p2585
Vbook
p2586
tp2587
Vpaper
p2588
s(V2008_005247
p2589
Vbook
p2590
tp2591
Vpaper
p2592
s(V2008_001692
p2593
Vdisc recorder
p2594
tp2595
Vequipment
p2596
s(V2009_003835
p2597
Vbook
p2598
tp2599
Vnewspaper
p2600
s(V2010_004460
p2601
Vcomputer
p2602
tp2603
Vfix
p2604
s(V2008_004482
p2605
Vbag
p2606
tp2607
Vpack
p2608
s(V2008_003179
p2609
Vpad
p2610
tp2611
Vmouse pad
p2612
s(V2008_007074
p2613
Vcarpet
p2614
tp2615
Vrug
p2616
s(V2008_004318
p2617
Vbag
p2618
tp2619
Vpack
p2620
s(V2008_006031
p2621
Vbook
p2622
tp2623
Vpaper
p2624
s(V2008_001992
p2625
Vshelves
p2626
tp2627
Vfence
p2628
s(V2008_005136
p2629
Vbook
p2630
tp2631
Vmagazine
p2632
s(V2010_000291
p2633
Vbook
p2634
tp2635
Vpaper
p2636
s(V2009_000928
p2637
Vcashion
p2638
tp2639
Vchair
p2640
s(V2008_006081
p2641
Vboard
p2642
tp2643
Vdart board
p2644
s(V2009_003280
p2645
Vcashion
p2646
tp2647
Vtable mat
p2648
s(V2008_004459
p2649
Vbook
p2650
tp2651
Vpaper
p2652
s(V2008_002205
p2653
Vchopping board
p2654
tp2655
Vbus
p2656
s(V2008_004706
p2657
Vbag
p2658
tp2659
Vpack
p2660
s(V2009_004822
p2661
Vbag
p2662
tp2663
Vpack
p2664
s(V2010_003861
p2665
Vbook
p2666
tp2667
Vnewspaper
p2668
s(V2008_004382
p2669
Vpad
p2670
tp2671
Vmouse pad
p2672
s(V2010_005930
p2673
Vcap
p2674
tp2675
Vhat
p2676
s(V2008_002434
p2677
Vbook
p2678
tp2679
Vpaper
p2680
s(V2010_004591
p2681
Vcomputer
p2682
tp2683
Vfix
p2684
s(V2009_004221
p2685
Vbag
p2686
tp2687
Vpack
p2688
s(V2009_000195
p2689
Vbag
p2690
tp2691
Vpack
p2692
s(V2008_006712
p2693
Vbook
p2694
tp2695
Vpaper
p2696
s(V2010_002050
p2697
Vbook
p2698
tp2699
Vmagazine
p2700
s(V2009_002984
p2701
Vbag
p2702
tp2703
Vpack
p2704
s(V2009_000157
p2705
Vcomputer
p2706
tp2707
Vlaptop
p2708
s(V2008_003248
p2709
Vbook
p2710
tp2711
Vfix unsure what's here
p2712
s(V2010_001579
p2713
Vbag
p2714
tp2715
Vpack
p2716
s(V2008_003789
p2717
Vcage
p2718
tp2719
Vbird cage
p2720
s(V2008_004487
p2721
Vcarpet
p2722
tp2723
Vrug
p2724
s(V2008_005360
p2725
Vbag
p2726
tp2727
Vpack
p2728
s(V2008_004058
p2729
Vcap
p2730
tp2731
Vhat
p2732
s(V2008_006064
p2733
Vbook
p2734
tp2735
Vpaper
p2736
s(V2008_007281
p2737
Vbook
p2738
tp2739
Vfix to separate laptop from book
p2740
s(V2008_002960
p2741
Vbag
p2742
tp2743
Vpack
p2744
s(V2010_000944
p2745
Vmonitor
p2746
tp2747
Vfix to exclude non monitor parts
p2748
s(V2009_000091
p2749
Vcattle
p2750
tp2751
Vfix
p2752
s(V2008_005962
p2753
Vbook
p2754
tp2755
Vpaper
p2756
s(V2008_002032
p2757
Vbook
p2758
tp2759
Vmenu
p2760
s(V2010_005149
p2761
Vcap
p2762
tp2763
Vhat
p2764
s(V2010_000337
p2765
Vbook
p2766
tp2767
Vpaper
p2768
s(V2010_002167
p2769
Vmonitor
p2770
tp2771
Vfix
p2772
s(V2010_002427
p2773
Vmonitor
p2774
tp2775
Vfix
p2776
s(V2010_006011
p2777
Vcomputer
p2778
tp2779
Vtvmonitor
p2780
s(V2010_004808
p2781
Vbook
p2782
tp2783
Vpaper
p2784
s(V2009_000819
p2785
Vcarpet
p2786
tp2787
Vrug
p2788
s(V2008_006330
p2789
Vbook
p2790
tp2791
Vpaper
p2792
s(V2010_002337
p2793
Vbook
p2794
tp2795
Vpaper
p2796
s(V2010_000435
p2797
Vbook
p2798
tp2799
Vfix to separate laptop from books
p2800
s(V2009_005185
p2801
Vbook
p2802
tp2803
Vpaper
p2804
s(V2010_001425
p2805
Vbook
p2806
tp2807
Vfix to separate video cassette from paper
p2808
s(V2009_001120
p2809
Vshelves
p2810
tp2811
Vcabinet
p2812
s(V2009_004521
p2813
Vnotebook
p2814
tp2815
Vpaper
p2816
s(V2009_000041
p2817
Vcomputer
p2818
tp2819
Vfix
p2820
s(V2009_003154
p2821
Vbook
p2822
tp2823
Vmenu
p2824
s(V2009_005278
p2825
Vshelves
p2826
tp2827
Vcabinet
p2828
s(V2009_000987
p2829
Vshelves
p2830
tp2831
Vcabinet
p2832
s(V2008_005945
p2833
Vbook
p2834
tp2835
Vpaper
p2836
s(V2010_004963
p2837
Vbook
p2838
tp2839
Vpaper
p2840
s(V2009_000183
p2841
Vbag
p2842
tp2843
Vpack
p2844
s(V2009_001091
p2845
Vbag
p2846
tp2847
Vpack
p2848
s(V2010_001430
p2849
Vbag
p2850
tp2851
Vpack
p2852
s(V2009_003178
p2853
Vcarpet
p2854
tp2855
Vrug
p2856
s(V2009_002849
p2857
Vnotebook
p2858
tp2859
Vpaper
p2860
s(V2008_000970
p2861
Vbag
p2862
tp2863
Vpack
p2864
s(V2010_001408
p2865
Vbag
p2866
tp2867
Vpack
p2868
s(V2008_004380
p2869
Vbook
p2870
tp2871
Vpaper
p2872
s(V2008_007476
p2873
Vshelves
p2874
tp2875
Vbox
p2876
s(V2009_001962
p2877
Vbag
p2878
tp2879
Vpack
p2880
s(V2009_003731
p2881
Vcup
p2882
tp2883
Vfix
p2884
s(V2010_001402
p2885
Vchain
p2886
tp2887
Vchair
p2888
s(V2008_003006
p2889
Vpram
p2890
tp2891
Vfix
p2892
s(V2008_004222
p2893
Vpad
p2894
tp2895
Vmouse pad
p2896
s(V2008_004881
p2897
Vcarpet
p2898
tp2899
Vrug
p2900
s(V2008_008433
p2901
Vbook
p2902
tp2903
Vpaper
p2904
s(V2010_001773
p2905
Vbook
p2906
tp2907
Vpaper
p2908
s(V2009_003554
p2909
Vshelves
p2910
tp2911
Vcabinet
p2912
s(V2008_004534
p2913
Vboard
p2914
tp2915
Vfix
p2916
s(V2008_001130
p2917
Vbook
p2918
tp2919
Vpaper
p2920
s(V2010_005164
p2921
Vbook
p2922
tp2923
Vpaper
p2924
s(V2008_007503
p2925
Vcarpet
p2926
tp2927
Vrug
p2928
s(V2008_002237
p2929
Vcarpet
p2930
tp2931
Vrug
p2932
s(V2009_005042
p2933
Vboard
p2934
tp2935
Vfix
p2936
s(V2008_002191
p2937
Vbag
p2938
tp2939
Vpack
p2940
s(V2008_000824
p2941
Vbook
p2942
tp2943
Vmagazine
p2944
s(V2010_005597
p2945
Vball
p2946
tp2947
Vbuoy
p2948
s(V2010_000472
p2949
Vboard
p2950
tp2951
Vironing board
p2952
s(V2009_002129
p2953
Vbag
p2954
tp2955
Vpack
p2956
s(V2009_001642
p2957
Vbag
p2958
tp2959
Vpack
p2960
s(V2008_004549
p2961
Vbook
p2962
tp2963
Vnewspaper
p2964
s(V2008_005680
p2965
Vcomputer
p2966
tp2967
Vcash register
p2968
s(V2010_002567
p2969
Vbook
p2970
tp2971
Vpaper
p2972
s(V2008_007019
p2973
Vbag
p2974
tp2975
Vpack
p2976
s(V2009_003634
p2977
Vruler
p2978
tp2979
Vhedge
p2980
s(V2009_004301
p2981
Vpad
p2982
tp2983
Vmouse pad
p2984
s(V2008_004451
p2985
Vcarpet
p2986
tp2987
Vrug
p2988
s(V2009_001042
p2989
Vbag
p2990
tp2991
Vpack
p2992
s(V2009_000549
p2993
Vcomputer
p2994
tp2995
Vfix to separate laptop from monitor
p2996
s(V2008_007655
p2997
Vcap
p2998
tp2999
Vhat
p3000
s(V2008_008423
p3001
Vwheel
p3002
tp3003
Vfix
p3004
s(V2010_001142
p3005
Vcrutch
p3006
tp3007
Vwalking stick
p3008
s(V2008_002045
p3009
Vpad
p3010
tp3011
Vmouse pad
p3012
s(V2008_008579
p3013
Vbag
p3014
tp3015
Vpack
p3016
s(V2010_003174
p3017
Vbook
p3018
tp3019
Vpaper
p3020
s(V2010_002461
p3021
Vbook
p3022
tp3023
Vpaper
p3024
s(V2009_000250
p3025
Vcattle
p3026
tp3027
Vfix
p3028
s(V2009_003808
p3029
Vcattle
p3030
tp3031
Vfix
p3032
s(V2008_006065
p3033
Vbag
p3034
tp3035
Vpack
p3036
s(V2008_003680
p3037
Vdirt
p3038
tp3039
Vdirt mound
p3040
s(V2008_005808
p3041
Vbag
p3042
tp3043
Vpack
p3044
s(V2008_006095
p3045
Vcarpet
p3046
tp3047
Vrug
p3048
s(V2010_002675
p3049
Vbag
p3050
tp3051
Vpack
p3052
s(V2008_007964
p3053
Vbag
p3054
tp3055
Vpack
p3056
s(V2008_007439
p3057
Vcarpet
p3058
tp3059
Vrug
p3060
s(V2008_002132
p3061
Vbag
p3062
tp3063
Vpack
p3064
s(V2008_004384
p3065
Vglass
p3066
tp3067
Vcup
p3068
s(V2010_004717
p3069
Vrope
p3070
tp3071
Vwire
p3072
s(V2008_000498
p3073
Vstove
p3074
tp3075
Vbbq grill
p3076
s(V2008_005056
p3077
Vcap
p3078
tp3079
Vfix
p3080
s(V2008_004597
p3081
Vclip
p3082
tp3083
Vtong
p3084
s(V2010_001645
p3085
Vbag
p3086
tp3087
Vpack
p3088
s(V2009_003959
p3089
Vcarpet
p3090
tp3091
Vrug
p3092
s(V2009_005083
p3093
Vshelves
p3094
tp3095
Vcabinet
p3096
s(V2008_003432
p3097
Vmonitor
p3098
tp3099
Vfix
p3100
s(V2009_004131
p3101
Vbook
p3102
tp3103
Vpaper
p3104
s(V2008_003914
p3105
Vcarpet
p3106
tp3107
Vrug
p3108
s(V2009_001621
p3109
Vbook
p3110
tp3111
Vmagazine
p3112
s(V2010_003539
p3113
Vbook
p3114
tp3115
Vpaper
p3116
s(V2009_004340
p3117
Vbag
p3118
tp3119
Vpack
p3120
s(V2008_005342
p3121
Vbag
p3122
tp3123
Vpack
p3124
s(V2009_000150
p3125
Vcomputer
p3126
tp3127
Vlaptop
p3128
s(V2008_005609
p3129
Vmonitor
p3130
tp3131
Vfix
p3132
s(V2008_001021
p3133
Vbook
p3134
tp3135
Vphoto
p3136
s(V2008_005779
p3137
Vbag
p3138
tp3139
Vpack
p3140
s(V2009_004359
p3141
Vpad
p3142
tp3143
Vmouse pad
p3144
s(V2010_001458
p3145
Vbag
p3146
tp3147
Vpack
p3148
s(V2008_000495
p3149
Vbook
p3150
tp3151
Vpaper
p3152
s(V2008_001751
p3153
Vbag
p3154
tp3155
Vpack
p3156
s(V2010_001399
p3157
Vboard
p3158
tp3159
Vsurfboard
p3160
s(V2008_003150
p3161
Vrope
p3162
tp3163
Vwire
p3164
s(V2008_005957
p3165
Vshelves
p3166
tp3167
Vcabinet
p3168
s(V2008_007010
p3169
Vshelves
p3170
tp3171
Vcabinet
p3172
s(V2009_003078
p3173
Vbook
p3174
tp3175
Vpaper
p3176
s(V2010_000629
p3177
Vsand
p3178
tp3179
Vfix
p3180
s.