(dp0
(V2008_007812
p1
Vcage
p2
tp3
Vbird feeder
p4
s(V2008_002377
p5
Vcap
p6
tp7
Vhat
p8
s(V2009_002525
p9
Vcage
p10
tp11
Vbird feeder
p12
s(V2010_006056
p13
Vbucket
p14
tp15
Vbottle
p16
s(V2009_003002
p17
Vcage
p18
tp19
Vbird cage
p20
s(V2008_006848
p21
Vboat
p22
tp23
Vfix
p24
s(V2010_005930
p25
Vcap
p26
tp27
Vhat
p28
s(V2008_007423
p29
Vcage
p30
tp31
Vbird feeder
p32
s(V2008_003315
p33
Vboat
p34
tp35
Vfix
p36
s(V2008_000472
p37
Vcage
p38
tp39
Vbird cage
p40
s(V2010_003520
p41
Vbedclothes
p42
tp43
Vcushion
p44
s(V2009_001348
p45
Vcage
p46
tp47
Vbird cage
p48
s(V2008_008528
p49
Vblade carrier
p50
tp51
Vbicycle
p52
s(V2008_006003
p53
Vboat
p54
tp55
Vfix
p56
s(V2010_003512
p57
Vcap
p58
tp59
Vbottle cap
p60
s(V2008_001283
p61
Vcage
p62
tp63
Vbird cage
p64
s(V2008_003922
p65
Vcaliduct
p66
tp67
Vradiator
p68
s(V2010_001199
p69
Vadornment
p70
tp71
Vplate
p72
s(V2010_003623
p73
Vboat
p74
tp75
Vfix
p76
s(V2008_000138
p77
Vcap
p78
tp79
Vhat
p80
s(V2008_005486
p81
Vboat
p82
tp83
Vfix
p84
s(V2009_001414
p85
Vcap
p86
tp87
Vbottle cap
p88
s(V2010_002637
p89
Vboat
p90
tp91
Vfix
p92
s(V2008_007755
p93
Vboat
p94
tp95
Vfix
p96
s(V2008_001920
p97
Vcap
p98
tp99
Vbottle cap
p100
s(V2008_003789
p101
Vcage
p102
tp103
Vbird cage
p104
s(V2010_005676
p105
Vcap
p106
tp107
Vhat
p108
s(V2009_000852
p109
Vboat
p110
tp111
Vmountain
p112
s(V2008_004058
p113
Vcap
p114
tp115
Vhat
p116
s(V2010_003544
p117
Vboat
p118
tp119
Vfix
p120
s(V2008_000981
p121
Vcar
p122
tp123
Vsidecar
p124
s(V2008_008141
p125
Vbike
p126
tp127
Vmotorbike
p128
s(V2008_008134
p129
Vcage
p130
tp131
Vbird cage
p132
s(V2008_003912
p133
Vboat
p134
tp135
Vfix
p136
s(V2008_007327
p137
Vcage
p138
tp139
Vbird cage
p140
s(V2009_003904
p141
Vcap
p142
tp143
Vhat
p144
s(V2010_005149
p145
Vcap
p146
tp147
Vhat
p148
s(V2008_000045
p149
Vbulb
p150
tp151
Vceiling
p152
s(V2008_003904
p153
Vbench
p154
tp155
Vcounter
p156
s(V2010_004712
p157
Vcap
p158
tp159
Vhat
p160
s(V2010_002713
p161
Vcage
p162
tp163
Vbird feeder
p164
s.